   1              		.syntax unified
   2              		.cpu cortex-m4
   3              		.eabi_attribute 27, 1
   4              		.fpu fpv4-sp-d16
   5              		.eabi_attribute 20, 1
   6              		.eabi_attribute 21, 1
   7              		.eabi_attribute 23, 3
   8              		.eabi_attribute 24, 1
   9              		.eabi_attribute 25, 1
  10              		.eabi_attribute 26, 1
  11              		.eabi_attribute 30, 4
  12              		.eabi_attribute 34, 1
  13              		.eabi_attribute 18, 4
  14              		.thumb
  15              		.file	"main.c"
  16              		.text
  17              	.Ltext0:
  18              		.cfi_sections	.debug_frame
  19              		.section	.text.get_sys_time_usec,"ax",%progbits
  20              		.align	1
  21              		.thumb
  22              		.thumb_func
  24              	get_sys_time_usec:
  25              	.LFB16:
  26              		.file 1 "/home/adamczer/paparazzi/sw/airborne/arch/stm32/mcu_periph/sys_time_arch.h"
   1:/home/adamczer/paparazzi/sw/airborne/arch/stm32/mcu_periph/sys_time_arch.h **** /*
   2:/home/adamczer/paparazzi/sw/airborne/arch/stm32/mcu_periph/sys_time_arch.h ****  *
   3:/home/adamczer/paparazzi/sw/airborne/arch/stm32/mcu_periph/sys_time_arch.h ****  * Copyright (C) 2009-2011 The Paparazzi Team
   4:/home/adamczer/paparazzi/sw/airborne/arch/stm32/mcu_periph/sys_time_arch.h ****  *
   5:/home/adamczer/paparazzi/sw/airborne/arch/stm32/mcu_periph/sys_time_arch.h ****  * This file is part of paparazzi.
   6:/home/adamczer/paparazzi/sw/airborne/arch/stm32/mcu_periph/sys_time_arch.h ****  *
   7:/home/adamczer/paparazzi/sw/airborne/arch/stm32/mcu_periph/sys_time_arch.h ****  * paparazzi is free software; you can redistribute it and/or modify
   8:/home/adamczer/paparazzi/sw/airborne/arch/stm32/mcu_periph/sys_time_arch.h ****  * it under the terms of the GNU General Public License as published by
   9:/home/adamczer/paparazzi/sw/airborne/arch/stm32/mcu_periph/sys_time_arch.h ****  * the Free Software Foundation; either version 2, or (at your option)
  10:/home/adamczer/paparazzi/sw/airborne/arch/stm32/mcu_periph/sys_time_arch.h ****  * any later version.
  11:/home/adamczer/paparazzi/sw/airborne/arch/stm32/mcu_periph/sys_time_arch.h ****  *
  12:/home/adamczer/paparazzi/sw/airborne/arch/stm32/mcu_periph/sys_time_arch.h ****  * paparazzi is distributed in the hope that it will be useful,
  13:/home/adamczer/paparazzi/sw/airborne/arch/stm32/mcu_periph/sys_time_arch.h ****  * but WITHOUT ANY WARRANTY; without even the implied warranty of
  14:/home/adamczer/paparazzi/sw/airborne/arch/stm32/mcu_periph/sys_time_arch.h ****  * MERCHANTABILITY or FITNESS FOR A PARTICULAR PURPOSE.  See the
  15:/home/adamczer/paparazzi/sw/airborne/arch/stm32/mcu_periph/sys_time_arch.h ****  * GNU General Public License for more details.
  16:/home/adamczer/paparazzi/sw/airborne/arch/stm32/mcu_periph/sys_time_arch.h ****  *
  17:/home/adamczer/paparazzi/sw/airborne/arch/stm32/mcu_periph/sys_time_arch.h ****  * You should have received a copy of the GNU General Public License
  18:/home/adamczer/paparazzi/sw/airborne/arch/stm32/mcu_periph/sys_time_arch.h ****  * along with paparazzi; see the file COPYING.  If not, write to
  19:/home/adamczer/paparazzi/sw/airborne/arch/stm32/mcu_periph/sys_time_arch.h ****  * the Free Software Foundation, 59 Temple Place - Suite 330,
  20:/home/adamczer/paparazzi/sw/airborne/arch/stm32/mcu_periph/sys_time_arch.h ****  * Boston, MA 02111-1307, USA.
  21:/home/adamczer/paparazzi/sw/airborne/arch/stm32/mcu_periph/sys_time_arch.h ****  *
  22:/home/adamczer/paparazzi/sw/airborne/arch/stm32/mcu_periph/sys_time_arch.h ****  */
  23:/home/adamczer/paparazzi/sw/airborne/arch/stm32/mcu_periph/sys_time_arch.h **** 
  24:/home/adamczer/paparazzi/sw/airborne/arch/stm32/mcu_periph/sys_time_arch.h **** /**
  25:/home/adamczer/paparazzi/sw/airborne/arch/stm32/mcu_periph/sys_time_arch.h ****  * @file arch/stm32/mcu_periph/sys_time_arch.h
  26:/home/adamczer/paparazzi/sw/airborne/arch/stm32/mcu_periph/sys_time_arch.h ****  * @ingroup stm32_arch
  27:/home/adamczer/paparazzi/sw/airborne/arch/stm32/mcu_periph/sys_time_arch.h ****  *
  28:/home/adamczer/paparazzi/sw/airborne/arch/stm32/mcu_periph/sys_time_arch.h ****  * STM32 timing functions.
  29:/home/adamczer/paparazzi/sw/airborne/arch/stm32/mcu_periph/sys_time_arch.h ****  *
  30:/home/adamczer/paparazzi/sw/airborne/arch/stm32/mcu_periph/sys_time_arch.h ****  */
  31:/home/adamczer/paparazzi/sw/airborne/arch/stm32/mcu_periph/sys_time_arch.h **** 
  32:/home/adamczer/paparazzi/sw/airborne/arch/stm32/mcu_periph/sys_time_arch.h **** #ifndef SYS_TIME_ARCH_H
  33:/home/adamczer/paparazzi/sw/airborne/arch/stm32/mcu_periph/sys_time_arch.h **** #define SYS_TIME_ARCH_H
  34:/home/adamczer/paparazzi/sw/airborne/arch/stm32/mcu_periph/sys_time_arch.h **** 
  35:/home/adamczer/paparazzi/sw/airborne/arch/stm32/mcu_periph/sys_time_arch.h **** #include "mcu_periph/sys_time.h"
  36:/home/adamczer/paparazzi/sw/airborne/arch/stm32/mcu_periph/sys_time_arch.h **** 
  37:/home/adamczer/paparazzi/sw/airborne/arch/stm32/mcu_periph/sys_time_arch.h **** #include <libopencm3/stm32/gpio.h>
  38:/home/adamczer/paparazzi/sw/airborne/arch/stm32/mcu_periph/sys_time_arch.h **** #include <libopencm3/stm32/rcc.h>
  39:/home/adamczer/paparazzi/sw/airborne/arch/stm32/mcu_periph/sys_time_arch.h **** #include <libopencm3/cm3/systick.h>
  40:/home/adamczer/paparazzi/sw/airborne/arch/stm32/mcu_periph/sys_time_arch.h **** #include "std.h"
  41:/home/adamczer/paparazzi/sw/airborne/arch/stm32/mcu_periph/sys_time_arch.h **** #ifdef RTOS_IS_CHIBIOS
  42:/home/adamczer/paparazzi/sw/airborne/arch/stm32/mcu_periph/sys_time_arch.h **** #include "chibios_stub.h"
  43:/home/adamczer/paparazzi/sw/airborne/arch/stm32/mcu_periph/sys_time_arch.h **** #include "chconf.h"
  44:/home/adamczer/paparazzi/sw/airborne/arch/stm32/mcu_periph/sys_time_arch.h **** #endif
  45:/home/adamczer/paparazzi/sw/airborne/arch/stm32/mcu_periph/sys_time_arch.h **** 
  46:/home/adamczer/paparazzi/sw/airborne/arch/stm32/mcu_periph/sys_time_arch.h **** /**
  47:/home/adamczer/paparazzi/sw/airborne/arch/stm32/mcu_periph/sys_time_arch.h ****  * Get the time in microseconds since startup.
  48:/home/adamczer/paparazzi/sw/airborne/arch/stm32/mcu_periph/sys_time_arch.h ****  * WARNING: overflows after 70min!
  49:/home/adamczer/paparazzi/sw/airborne/arch/stm32/mcu_periph/sys_time_arch.h ****  * @return microseconds since startup as uint32_t
  50:/home/adamczer/paparazzi/sw/airborne/arch/stm32/mcu_periph/sys_time_arch.h ****  */
  51:/home/adamczer/paparazzi/sw/airborne/arch/stm32/mcu_periph/sys_time_arch.h **** static inline uint32_t get_sys_time_usec(void)
  52:/home/adamczer/paparazzi/sw/airborne/arch/stm32/mcu_periph/sys_time_arch.h **** {
  27              		.loc 1 52 0
  28              		.cfi_startproc
  29              		@ args = 0, pretend = 0, frame = 0
  30              		@ frame_needed = 0, uses_anonymous_args = 0
  31 0000 F8B5     		push	{r3, r4, r5, r6, r7, lr}
  32              		.cfi_def_cfa_offset 24
  33              		.cfi_offset 3, -24
  34              		.cfi_offset 4, -20
  35              		.cfi_offset 5, -16
  36              		.cfi_offset 6, -12
  37              		.cfi_offset 7, -8
  38              		.cfi_offset 14, -4
  53:/home/adamczer/paparazzi/sw/airborne/arch/stm32/mcu_periph/sys_time_arch.h **** #ifdef RTOS_IS_CHIBIOS
  54:/home/adamczer/paparazzi/sw/airborne/arch/stm32/mcu_periph/sys_time_arch.h ****   return (chibios_chTimeNow() * (1000000 / CH_FREQUENCY));
  55:/home/adamczer/paparazzi/sw/airborne/arch/stm32/mcu_periph/sys_time_arch.h **** #else
  56:/home/adamczer/paparazzi/sw/airborne/arch/stm32/mcu_periph/sys_time_arch.h ****   return sys_time.nb_sec * 1000000 +
  39              		.loc 1 56 0
  40 0002 0D4D     		ldr	r5, .L2
  41              	.LBB20:
  42              	.LBB21:
  43              		.file 2 "./mcu_periph/sys_time.h"
   1:./mcu_periph/sys_time.h **** /*
   2:./mcu_periph/sys_time.h ****  *
   3:./mcu_periph/sys_time.h ****  * Copyright (C) 2009-2011 The Paparazzi Team
   4:./mcu_periph/sys_time.h ****  *
   5:./mcu_periph/sys_time.h ****  * This file is part of paparazzi.
   6:./mcu_periph/sys_time.h ****  *
   7:./mcu_periph/sys_time.h ****  * paparazzi is free software; you can redistribute it and/or modify
   8:./mcu_periph/sys_time.h ****  * it under the terms of the GNU General Public License as published by
   9:./mcu_periph/sys_time.h ****  * the Free Software Foundation; either version 2, or (at your option)
  10:./mcu_periph/sys_time.h ****  * any later version.
  11:./mcu_periph/sys_time.h ****  *
  12:./mcu_periph/sys_time.h ****  * paparazzi is distributed in the hope that it will be useful,
  13:./mcu_periph/sys_time.h ****  * but WITHOUT ANY WARRANTY; without even the implied warranty of
  14:./mcu_periph/sys_time.h ****  * MERCHANTABILITY or FITNESS FOR A PARTICULAR PURPOSE.  See the
  15:./mcu_periph/sys_time.h ****  * GNU General Public License for more details.
  16:./mcu_periph/sys_time.h ****  *
  17:./mcu_periph/sys_time.h ****  * You should have received a copy of the GNU General Public License
  18:./mcu_periph/sys_time.h ****  * along with paparazzi; see the file COPYING.  If not, write to
  19:./mcu_periph/sys_time.h ****  * the Free Software Foundation, 59 Temple Place - Suite 330,
  20:./mcu_periph/sys_time.h ****  * Boston, MA 02111-1307, USA.
  21:./mcu_periph/sys_time.h ****  *
  22:./mcu_periph/sys_time.h ****  */
  23:./mcu_periph/sys_time.h **** 
  24:./mcu_periph/sys_time.h **** /**
  25:./mcu_periph/sys_time.h ****  * @file mcu_periph/sys_time.h
  26:./mcu_periph/sys_time.h ****  * @brief Architecture independent timing functions.
  27:./mcu_periph/sys_time.h ****  *
  28:./mcu_periph/sys_time.h ****  */
  29:./mcu_periph/sys_time.h **** 
  30:./mcu_periph/sys_time.h **** #ifndef SYS_TIME_H
  31:./mcu_periph/sys_time.h **** #define SYS_TIME_H
  32:./mcu_periph/sys_time.h **** 
  33:./mcu_periph/sys_time.h **** #include <inttypes.h>
  34:./mcu_periph/sys_time.h **** #include <stdlib.h>
  35:./mcu_periph/sys_time.h **** #include "std.h"
  36:./mcu_periph/sys_time.h **** 
  37:./mcu_periph/sys_time.h **** #include BOARD_CONFIG
  38:./mcu_periph/sys_time.h **** 
  39:./mcu_periph/sys_time.h **** #ifndef SYS_TIME_NB_TIMER
  40:./mcu_periph/sys_time.h **** #define SYS_TIME_NB_TIMER 16
  41:./mcu_periph/sys_time.h **** #endif
  42:./mcu_periph/sys_time.h **** 
  43:./mcu_periph/sys_time.h **** 
  44:./mcu_periph/sys_time.h **** /**
  45:./mcu_periph/sys_time.h ****  * (Default) sys_time timer frequency in Hz.
  46:./mcu_periph/sys_time.h ****  * sys_time.resolution is set from this define.
  47:./mcu_periph/sys_time.h ****  */
  48:./mcu_periph/sys_time.h **** #ifndef SYS_TIME_FREQUENCY
  49:./mcu_periph/sys_time.h **** #if defined PERIODIC_FREQUENCY
  50:./mcu_periph/sys_time.h **** #define SYS_TIME_FREQUENCY (2 * PERIODIC_FREQUENCY)
  51:./mcu_periph/sys_time.h **** #else
  52:./mcu_periph/sys_time.h **** #define SYS_TIME_FREQUENCY 1000
  53:./mcu_periph/sys_time.h **** #endif
  54:./mcu_periph/sys_time.h **** #endif
  55:./mcu_periph/sys_time.h **** 
  56:./mcu_periph/sys_time.h **** 
  57:./mcu_periph/sys_time.h **** typedef uint8_t tid_t; ///< sys_time timer id type
  58:./mcu_periph/sys_time.h **** typedef void (*sys_time_cb)(uint8_t id);
  59:./mcu_periph/sys_time.h **** 
  60:./mcu_periph/sys_time.h **** struct sys_time_timer {
  61:./mcu_periph/sys_time.h ****   bool_t          in_use;
  62:./mcu_periph/sys_time.h ****   sys_time_cb     cb;
  63:./mcu_periph/sys_time.h ****   volatile bool_t elapsed;
  64:./mcu_periph/sys_time.h ****   uint32_t        end_time; ///< in SYS_TIME_TICKS
  65:./mcu_periph/sys_time.h ****   uint32_t        duration; ///< in SYS_TIME_TICKS
  66:./mcu_periph/sys_time.h **** };
  67:./mcu_periph/sys_time.h **** 
  68:./mcu_periph/sys_time.h **** struct sys_time {
  69:./mcu_periph/sys_time.h ****   volatile uint32_t nb_sec;       ///< full seconds since startup
  70:./mcu_periph/sys_time.h ****   volatile uint32_t nb_sec_rem;   ///< remainder of seconds since startup in CPU_TICKS
  71:./mcu_periph/sys_time.h ****   volatile uint32_t nb_tick;      ///< SYS_TIME_TICKS since startup
  72:./mcu_periph/sys_time.h ****   struct sys_time_timer timer[SYS_TIME_NB_TIMER];
  73:./mcu_periph/sys_time.h **** 
  74:./mcu_periph/sys_time.h ****   float resolution;               ///< sys_time_timer resolution in seconds
  75:./mcu_periph/sys_time.h ****   uint32_t ticks_per_sec;         ///< sys_time ticks per second (SYS_TIME_FREQUENCY)
  76:./mcu_periph/sys_time.h ****   uint32_t resolution_cpu_ticks;  ///< sys_time_timer resolution in cpu ticks
  77:./mcu_periph/sys_time.h ****   uint32_t cpu_ticks_per_sec;     ///< cpu ticks per second
  78:./mcu_periph/sys_time.h **** };
  79:./mcu_periph/sys_time.h **** 
  80:./mcu_periph/sys_time.h **** extern struct sys_time sys_time;
  81:./mcu_periph/sys_time.h **** 
  82:./mcu_periph/sys_time.h **** 
  83:./mcu_periph/sys_time.h **** extern void sys_time_init(void);
  84:./mcu_periph/sys_time.h **** 
  85:./mcu_periph/sys_time.h **** /**
  86:./mcu_periph/sys_time.h ****  * Register a new system timer.
  87:./mcu_periph/sys_time.h ****  * @param duration Duration in seconds until the timer elapses.
  88:./mcu_periph/sys_time.h ****  * @param cb Callback function that is called from the ISR when timer elapses, or NULL
  89:./mcu_periph/sys_time.h ****  * @return -1 if it failed, the timer id otherwise
  90:./mcu_periph/sys_time.h ****  */
  91:./mcu_periph/sys_time.h **** extern int sys_time_register_timer(float duration, sys_time_cb cb);
  92:./mcu_periph/sys_time.h **** 
  93:./mcu_periph/sys_time.h **** /**
  94:./mcu_periph/sys_time.h ****  * Cancel a system timer by id.
  95:./mcu_periph/sys_time.h ****  * @param id Timer id.
  96:./mcu_periph/sys_time.h ****  */
  97:./mcu_periph/sys_time.h **** extern void sys_time_cancel_timer(tid_t id);
  98:./mcu_periph/sys_time.h **** 
  99:./mcu_periph/sys_time.h **** /**
 100:./mcu_periph/sys_time.h ****  * Update the duration until a timer elapses.
 101:./mcu_periph/sys_time.h ****  * @param id Timer id
 102:./mcu_periph/sys_time.h ****  * @param duration Duration in seconds until the timer elapses.
 103:./mcu_periph/sys_time.h ****  */
 104:./mcu_periph/sys_time.h **** extern void sys_time_update_timer(tid_t id, float duration);
 105:./mcu_periph/sys_time.h **** 
 106:./mcu_periph/sys_time.h **** /**
 107:./mcu_periph/sys_time.h ****  * Check if timer has elapsed.
 108:./mcu_periph/sys_time.h ****  * @param id Timer id
 109:./mcu_periph/sys_time.h ****  * @return TRUE if timer has elapsed
 110:./mcu_periph/sys_time.h ****  */
 111:./mcu_periph/sys_time.h **** static inline bool_t sys_time_check_and_ack_timer(tid_t id)
 112:./mcu_periph/sys_time.h **** {
 113:./mcu_periph/sys_time.h ****   if (sys_time.timer[id].elapsed) {
 114:./mcu_periph/sys_time.h ****     sys_time.timer[id].elapsed = FALSE;
 115:./mcu_periph/sys_time.h ****     return TRUE;
 116:./mcu_periph/sys_time.h ****   }
 117:./mcu_periph/sys_time.h ****   return FALSE;
 118:./mcu_periph/sys_time.h **** }
 119:./mcu_periph/sys_time.h **** 
 120:./mcu_periph/sys_time.h **** /**
 121:./mcu_periph/sys_time.h ****  * Get the time in seconds since startup.
 122:./mcu_periph/sys_time.h ****  * @return current system time as float with sys_time.resolution
 123:./mcu_periph/sys_time.h ****  */
 124:./mcu_periph/sys_time.h **** static inline float get_sys_time_float(void)
 125:./mcu_periph/sys_time.h **** {
 126:./mcu_periph/sys_time.h ****   return (float)(sys_time.nb_sec + (float)(sys_time.nb_sec_rem) / sys_time.cpu_ticks_per_sec);
 127:./mcu_periph/sys_time.h **** }
 128:./mcu_periph/sys_time.h **** 
 129:./mcu_periph/sys_time.h **** 
 130:./mcu_periph/sys_time.h **** /*
 131:./mcu_periph/sys_time.h ****  * Convenience functions to convert between seconds and sys_time ticks.
 132:./mcu_periph/sys_time.h ****  */
 133:./mcu_periph/sys_time.h **** static inline uint32_t sys_time_ticks_of_sec(float seconds)
 134:./mcu_periph/sys_time.h **** {
 135:./mcu_periph/sys_time.h ****   return (uint32_t)(seconds * sys_time.ticks_per_sec + 0.5);
 136:./mcu_periph/sys_time.h **** }
 137:./mcu_periph/sys_time.h **** 
 138:./mcu_periph/sys_time.h **** static inline uint32_t sys_time_ticks_of_msec(uint32_t msec)
 139:./mcu_periph/sys_time.h **** {
 140:./mcu_periph/sys_time.h ****   return msec * sys_time.ticks_per_sec / 1000;
 141:./mcu_periph/sys_time.h **** }
 142:./mcu_periph/sys_time.h **** 
 143:./mcu_periph/sys_time.h **** static inline uint32_t sys_time_ticks_of_usec(uint32_t usec)
 144:./mcu_periph/sys_time.h **** {
 145:./mcu_periph/sys_time.h ****   return usec * sys_time.ticks_per_sec / 1000000;
 146:./mcu_periph/sys_time.h **** }
 147:./mcu_periph/sys_time.h **** 
 148:./mcu_periph/sys_time.h **** static inline float sec_of_sys_time_ticks(uint32_t ticks)
 149:./mcu_periph/sys_time.h **** {
 150:./mcu_periph/sys_time.h ****   return (float)ticks * sys_time.resolution;
 151:./mcu_periph/sys_time.h **** }
 152:./mcu_periph/sys_time.h **** 
 153:./mcu_periph/sys_time.h **** static inline uint32_t msec_of_sys_time_ticks(uint32_t ticks)
 154:./mcu_periph/sys_time.h **** {
 155:./mcu_periph/sys_time.h ****   return ticks * 1000 / sys_time.ticks_per_sec;
 156:./mcu_periph/sys_time.h **** }
 157:./mcu_periph/sys_time.h **** 
 158:./mcu_periph/sys_time.h **** static inline uint32_t usec_of_sys_time_ticks(uint32_t ticks)
 159:./mcu_periph/sys_time.h **** {
 160:./mcu_periph/sys_time.h ****   return ticks * 1000 / sys_time.ticks_per_sec * 1000;
 161:./mcu_periph/sys_time.h **** }
 162:./mcu_periph/sys_time.h **** 
 163:./mcu_periph/sys_time.h **** 
 164:./mcu_periph/sys_time.h **** 
 165:./mcu_periph/sys_time.h **** /*
 166:./mcu_periph/sys_time.h ****  * Convenience functions to convert between seconds and CPU ticks.
 167:./mcu_periph/sys_time.h ****  */
 168:./mcu_periph/sys_time.h **** static inline uint32_t cpu_ticks_of_sec(float seconds)
 169:./mcu_periph/sys_time.h **** {
 170:./mcu_periph/sys_time.h ****   return (uint32_t)(seconds * sys_time.cpu_ticks_per_sec + 0.5);
 171:./mcu_periph/sys_time.h **** }
 172:./mcu_periph/sys_time.h **** 
 173:./mcu_periph/sys_time.h **** static inline uint32_t cpu_ticks_of_usec(uint32_t usec)
 174:./mcu_periph/sys_time.h **** {
 175:./mcu_periph/sys_time.h ****   return usec * (sys_time.cpu_ticks_per_sec / 1000000);
 176:./mcu_periph/sys_time.h **** }
 177:./mcu_periph/sys_time.h **** 
 178:./mcu_periph/sys_time.h **** static inline int32_t signed_cpu_ticks_of_usec(int32_t usec)
 179:./mcu_periph/sys_time.h **** {
 180:./mcu_periph/sys_time.h ****   return usec * ((int32_t)sys_time.cpu_ticks_per_sec / 1000000);
 181:./mcu_periph/sys_time.h **** }
 182:./mcu_periph/sys_time.h **** 
 183:./mcu_periph/sys_time.h **** static inline uint32_t cpu_ticks_of_nsec(uint32_t nsec)
 184:./mcu_periph/sys_time.h **** {
 185:./mcu_periph/sys_time.h ****   return nsec * (sys_time.cpu_ticks_per_sec / 1000000) / 1000;
 186:./mcu_periph/sys_time.h **** }
 187:./mcu_periph/sys_time.h **** 
 188:./mcu_periph/sys_time.h **** static inline uint32_t msec_of_cpu_ticks(uint32_t cpu_ticks)
 189:./mcu_periph/sys_time.h **** {
 190:./mcu_periph/sys_time.h ****   return cpu_ticks / (sys_time.cpu_ticks_per_sec / 1000);
 191:./mcu_periph/sys_time.h **** }
 192:./mcu_periph/sys_time.h **** 
 193:./mcu_periph/sys_time.h **** static inline uint32_t usec_of_cpu_ticks(uint32_t cpu_ticks)
 194:./mcu_periph/sys_time.h **** {
 195:./mcu_periph/sys_time.h ****   return cpu_ticks / (sys_time.cpu_ticks_per_sec / 1000000);
  44              		.loc 2 195 0
  45 0004 0D4F     		ldr	r7, .L2+4
  46              	.LBE21:
  47              	.LBE20:
  48              		.loc 1 56 0
  49 0006 2B68     		ldr	r3, [r5]
  50              	.LBB24:
  51              	.LBB22:
  52              		.loc 2 195 0
  53 0008 D5F85861 		ldr	r6, [r5, #344]
  54              	.LBE22:
  55              	.LBE24:
  57:/home/adamczer/paparazzi/sw/airborne/arch/stm32/mcu_periph/sys_time_arch.h ****          usec_of_cpu_ticks(sys_time.nb_sec_rem) +
  56              		.loc 1 57 0
  57 000c 6A68     		ldr	r2, [r5, #4]
  58              	.LVL0:
  59              	.LBB25:
  60              	.LBB23:
  61              		.loc 2 195 0
  62 000e B6FBF7F6 		udiv	r6, r6, r7
  63 0012 B2FBF6F6 		udiv	r6, r2, r6
  64              	.LBE23:
  65              	.LBE25:
  56:/home/adamczer/paparazzi/sw/airborne/arch/stm32/mcu_periph/sys_time_arch.h ****          usec_of_cpu_ticks(sys_time.nb_sec_rem) +
  66              		.loc 1 56 0
  67 0016 07FB0366 		mla	r6, r7, r3, r6
  58:/home/adamczer/paparazzi/sw/airborne/arch/stm32/mcu_periph/sys_time_arch.h ****          usec_of_cpu_ticks(systick_get_reload() - systick_get_value());
  68              		.loc 1 58 0
  69 001a FFF7FEFF 		bl	systick_get_reload
  70              	.LVL1:
  71 001e 0446     		mov	r4, r0
  72 0020 FFF7FEFF 		bl	systick_get_value
  73              	.LVL2:
  74              	.LBB26:
  75              	.LBB27:
  76              		.loc 2 195 0
  77 0024 D5F85831 		ldr	r3, [r5, #344]
  78              	.LBE27:
  79              	.LBE26:
  80              		.loc 1 58 0
  81 0028 201A     		subs	r0, r4, r0
  82              	.LVL3:
  83              	.LBB29:
  84              	.LBB28:
  85              		.loc 2 195 0
  86 002a B3FBF7F4 		udiv	r4, r3, r7
  87 002e B0FBF4F0 		udiv	r0, r0, r4
  88              	.LVL4:
  89              	.LBE28:
  90              	.LBE29:
  59:/home/adamczer/paparazzi/sw/airborne/arch/stm32/mcu_periph/sys_time_arch.h **** #endif
  60:/home/adamczer/paparazzi/sw/airborne/arch/stm32/mcu_periph/sys_time_arch.h **** }
  91              		.loc 1 60 0
  92 0032 3044     		add	r0, r0, r6
  93 0034 F8BD     		pop	{r3, r4, r5, r6, r7, pc}
  94              	.L3:
  95 0036 00BF     		.align	2
  96              	.L2:
  97 0038 00000000 		.word	sys_time
  98 003c 40420F00 		.word	1000000
  99              		.cfi_endproc
 100              	.LFE16:
 102              		.section	.text.startup.main,"ax",%progbits
 103              		.align	1
 104              		.global	main
 105              		.thumb
 106              		.thumb_func
 108              	main:
 109              	.LFB475:
 110              		.file 3 "firmwares/rotorcraft/main.c"
   1:firmwares/rotorcraft/main.c **** /*
   2:firmwares/rotorcraft/main.c ****  * Copyright (C) 2008-2010 The Paparazzi Team
   3:firmwares/rotorcraft/main.c ****  *
   4:firmwares/rotorcraft/main.c ****  * This file is part of Paparazzi.
   5:firmwares/rotorcraft/main.c ****  *
   6:firmwares/rotorcraft/main.c ****  * Paparazzi is free software; you can redistribute it and/or modify
   7:firmwares/rotorcraft/main.c ****  * it under the terms of the GNU General Public License as published by
   8:firmwares/rotorcraft/main.c ****  * the Free Software Foundation; either version 2, or (at your option)
   9:firmwares/rotorcraft/main.c ****  * any later version.
  10:firmwares/rotorcraft/main.c ****  *
  11:firmwares/rotorcraft/main.c ****  * Paparazzi is distributed in the hope that it will be useful,
  12:firmwares/rotorcraft/main.c ****  * but WITHOUT ANY WARRANTY; without even the implied warranty of
  13:firmwares/rotorcraft/main.c ****  * MERCHANTABILITY or FITNESS FOR A PARTICULAR PURPOSE.  See the
  14:firmwares/rotorcraft/main.c ****  * GNU General Public License for more details.
  15:firmwares/rotorcraft/main.c ****  *
  16:firmwares/rotorcraft/main.c ****  * You should have received a copy of the GNU General Public License
  17:firmwares/rotorcraft/main.c ****  * along with Paparazzi; see the file COPYING.  If not, write to
  18:firmwares/rotorcraft/main.c ****  * the Free Software Foundation, 59 Temple Place - Suite 330,
  19:firmwares/rotorcraft/main.c ****  * Boston, MA 02111-1307, USA.
  20:firmwares/rotorcraft/main.c ****  *
  21:firmwares/rotorcraft/main.c ****  */
  22:firmwares/rotorcraft/main.c **** 
  23:firmwares/rotorcraft/main.c **** /**
  24:firmwares/rotorcraft/main.c ****  * @file firmwares/rotorcraft/main.c
  25:firmwares/rotorcraft/main.c ****  *
  26:firmwares/rotorcraft/main.c ****  * Rotorcraft main loop.
  27:firmwares/rotorcraft/main.c ****  */
  28:firmwares/rotorcraft/main.c **** 
  29:firmwares/rotorcraft/main.c **** #define MODULES_C
  30:firmwares/rotorcraft/main.c **** 
  31:firmwares/rotorcraft/main.c **** #define ABI_C
  32:firmwares/rotorcraft/main.c **** 
  33:firmwares/rotorcraft/main.c **** #include <inttypes.h>
  34:firmwares/rotorcraft/main.c **** #include "mcu.h"
  35:firmwares/rotorcraft/main.c **** #include "mcu_periph/sys_time.h"
  36:firmwares/rotorcraft/main.c **** #include "mcu_periph/i2c.h"
  37:firmwares/rotorcraft/main.c **** #include "mcu_periph/uart.h"
  38:firmwares/rotorcraft/main.c **** #if USE_UDP
  39:firmwares/rotorcraft/main.c **** #include "mcu_periph/udp.h"
  40:firmwares/rotorcraft/main.c **** #endif
  41:firmwares/rotorcraft/main.c **** #include "led.h"
  42:firmwares/rotorcraft/main.c **** 
  43:firmwares/rotorcraft/main.c **** #include "subsystems/datalink/telemetry.h"
  44:firmwares/rotorcraft/main.c **** #include "subsystems/datalink/datalink.h"
  45:firmwares/rotorcraft/main.c **** #include "subsystems/datalink/downlink.h"
  46:firmwares/rotorcraft/main.c **** #include "subsystems/settings.h"
  47:firmwares/rotorcraft/main.c **** 
  48:firmwares/rotorcraft/main.c **** #include "subsystems/commands.h"
  49:firmwares/rotorcraft/main.c **** #include "subsystems/actuators.h"
  50:firmwares/rotorcraft/main.c **** #if USE_MOTOR_MIXING
  51:firmwares/rotorcraft/main.c **** #include "subsystems/actuators/motor_mixing.h"
  52:firmwares/rotorcraft/main.c **** #endif
  53:firmwares/rotorcraft/main.c **** 
  54:firmwares/rotorcraft/main.c **** #include "subsystems/imu.h"
  55:firmwares/rotorcraft/main.c **** #include "subsystems/gps.h"
  56:firmwares/rotorcraft/main.c **** 
  57:firmwares/rotorcraft/main.c **** #if USE_BARO_BOARD
  58:firmwares/rotorcraft/main.c **** #include "subsystems/sensors/baro.h"
  59:firmwares/rotorcraft/main.c **** PRINT_CONFIG_MSG_VALUE("USE_BARO_BOARD is TRUE, reading onboard baro: ", BARO_BOARD)
  60:firmwares/rotorcraft/main.c **** #endif
  61:firmwares/rotorcraft/main.c **** 
  62:firmwares/rotorcraft/main.c **** #include "subsystems/electrical.h"
  63:firmwares/rotorcraft/main.c **** 
  64:firmwares/rotorcraft/main.c **** #include "firmwares/rotorcraft/autopilot.h"
  65:firmwares/rotorcraft/main.c **** 
  66:firmwares/rotorcraft/main.c **** #include "subsystems/radio_control.h"
  67:firmwares/rotorcraft/main.c **** 
  68:firmwares/rotorcraft/main.c **** #include "firmwares/rotorcraft/stabilization.h"
  69:firmwares/rotorcraft/main.c **** #include "firmwares/rotorcraft/guidance.h"
  70:firmwares/rotorcraft/main.c **** 
  71:firmwares/rotorcraft/main.c **** #include "subsystems/ahrs.h"
  72:firmwares/rotorcraft/main.c **** #include "subsystems/ahrs/ahrs_aligner.h"
  73:firmwares/rotorcraft/main.c **** #include "subsystems/ins.h"
  74:firmwares/rotorcraft/main.c **** 
  75:firmwares/rotorcraft/main.c **** #include "state.h"
  76:firmwares/rotorcraft/main.c **** 
  77:firmwares/rotorcraft/main.c **** #include "firmwares/rotorcraft/main.h"
  78:firmwares/rotorcraft/main.c **** 
  79:firmwares/rotorcraft/main.c **** #ifdef SITL
  80:firmwares/rotorcraft/main.c **** #include "nps_autopilot.h"
  81:firmwares/rotorcraft/main.c **** #endif
  82:firmwares/rotorcraft/main.c **** 
  83:firmwares/rotorcraft/main.c **** #include "generated/modules.h"
  84:firmwares/rotorcraft/main.c **** #include "subsystems/abi.h"
  85:firmwares/rotorcraft/main.c **** 
  86:firmwares/rotorcraft/main.c **** #if USE_USB_SERIAL
  87:firmwares/rotorcraft/main.c **** #include "mcu_periph/usb_serial.h"
  88:firmwares/rotorcraft/main.c **** #endif
  89:firmwares/rotorcraft/main.c **** 
  90:firmwares/rotorcraft/main.c **** /* if PRINT_CONFIG is defined, print some config options */
  91:firmwares/rotorcraft/main.c **** PRINT_CONFIG_VAR(PERIODIC_FREQUENCY)
  92:firmwares/rotorcraft/main.c **** 
  93:firmwares/rotorcraft/main.c **** /* TELEMETRY_FREQUENCY is defined in generated/periodic_telemetry.h
  94:firmwares/rotorcraft/main.c ****  * defaults to 60Hz or set by TELEMETRY_FREQUENCY configure option in airframe file
  95:firmwares/rotorcraft/main.c ****  */
  96:firmwares/rotorcraft/main.c **** PRINT_CONFIG_VAR(TELEMETRY_FREQUENCY)
  97:firmwares/rotorcraft/main.c **** 
  98:firmwares/rotorcraft/main.c **** /* MODULES_FREQUENCY is defined in generated/modules.h
  99:firmwares/rotorcraft/main.c ****  * according to main_freq parameter set for modules in airframe file
 100:firmwares/rotorcraft/main.c ****  */
 101:firmwares/rotorcraft/main.c **** PRINT_CONFIG_VAR(MODULES_FREQUENCY)
 102:firmwares/rotorcraft/main.c **** 
 103:firmwares/rotorcraft/main.c **** #ifndef BARO_PERIODIC_FREQUENCY
 104:firmwares/rotorcraft/main.c **** #define BARO_PERIODIC_FREQUENCY 50
 105:firmwares/rotorcraft/main.c **** #endif
 106:firmwares/rotorcraft/main.c **** PRINT_CONFIG_VAR(BARO_PERIODIC_FREQUENCY)
 107:firmwares/rotorcraft/main.c **** 
 108:firmwares/rotorcraft/main.c **** #if USE_AHRS && USE_IMU && (defined AHRS_PROPAGATE_FREQUENCY)
 109:firmwares/rotorcraft/main.c **** #if (AHRS_PROPAGATE_FREQUENCY > PERIODIC_FREQUENCY)
 110:firmwares/rotorcraft/main.c **** #warning "PERIODIC_FREQUENCY should be least equal or greater than AHRS_PROPAGATE_FREQUENCY"
 111:firmwares/rotorcraft/main.c **** INFO_VALUE("it is recommended to configure in your airframe PERIODIC_FREQUENCY to at least ", AHRS_
 112:firmwares/rotorcraft/main.c **** #endif
 113:firmwares/rotorcraft/main.c **** #endif
 114:firmwares/rotorcraft/main.c **** 
 115:firmwares/rotorcraft/main.c **** static inline void on_gyro_event(void);
 116:firmwares/rotorcraft/main.c **** static inline void on_accel_event(void);
 117:firmwares/rotorcraft/main.c **** static inline void on_gps_event(void);
 118:firmwares/rotorcraft/main.c **** static inline void on_mag_event(void);
 119:firmwares/rotorcraft/main.c **** 
 120:firmwares/rotorcraft/main.c **** 
 121:firmwares/rotorcraft/main.c **** tid_t main_periodic_tid; ///< id for main_periodic() timer
 122:firmwares/rotorcraft/main.c **** tid_t modules_tid;       ///< id for modules_periodic_task() timer
 123:firmwares/rotorcraft/main.c **** tid_t failsafe_tid;      ///< id for failsafe_check() timer
 124:firmwares/rotorcraft/main.c **** tid_t radio_control_tid; ///< id for radio_control_periodic_task() timer
 125:firmwares/rotorcraft/main.c **** tid_t electrical_tid;    ///< id for electrical_periodic() timer
 126:firmwares/rotorcraft/main.c **** tid_t telemetry_tid;     ///< id for telemetry_periodic() timer
 127:firmwares/rotorcraft/main.c **** #if USE_BARO_BOARD
 128:firmwares/rotorcraft/main.c **** tid_t baro_tid;          ///< id for baro_periodic() timer
 129:firmwares/rotorcraft/main.c **** #endif
 130:firmwares/rotorcraft/main.c **** 
 131:firmwares/rotorcraft/main.c **** #ifndef SITL
 132:firmwares/rotorcraft/main.c **** int main(void)
 133:firmwares/rotorcraft/main.c **** {
 111              		.loc 3 133 0
 112              		.cfi_startproc
 113              		@ Volatile: function does not return.
 114              		@ args = 0, pretend = 0, frame = 24
 115              		@ frame_needed = 0, uses_anonymous_args = 0
 116 0000 2DE9FF48 		push	{r0, r1, r2, r3, r4, r5, r6, r7, fp, lr}
 117              		.cfi_def_cfa_offset 40
 118              		.cfi_offset 7, -12
 119              		.cfi_offset 11, -8
 120              		.cfi_offset 14, -4
 121              	.LBB107:
 122              	.LBB108:
 123              	.LBB109:
 124              	.LBB110:
 125              		.file 4 "/home/adamczer/paparazzi/var/aircrafts/Quad_LisaMX/ap/generated/modules.h"
   1:/home/adamczer/paparazzi/var/aircrafts/Quad_LisaMX/ap/generated/modules.h **** /* This file has been generated from /home/adamczer/paparazzi/conf/airframes/examples/quadrotor_lis
   2:/home/adamczer/paparazzi/var/aircrafts/Quad_LisaMX/ap/generated/modules.h **** /* Please DO NOT EDIT */
   3:/home/adamczer/paparazzi/var/aircrafts/Quad_LisaMX/ap/generated/modules.h **** 
   4:/home/adamczer/paparazzi/var/aircrafts/Quad_LisaMX/ap/generated/modules.h **** #ifndef MODULES_H
   5:/home/adamczer/paparazzi/var/aircrafts/Quad_LisaMX/ap/generated/modules.h **** #define MODULES_H
   6:/home/adamczer/paparazzi/var/aircrafts/Quad_LisaMX/ap/generated/modules.h **** 
   7:/home/adamczer/paparazzi/var/aircrafts/Quad_LisaMX/ap/generated/modules.h **** #define MODULES_IDLE  0
   8:/home/adamczer/paparazzi/var/aircrafts/Quad_LisaMX/ap/generated/modules.h **** #define MODULES_RUN   1
   9:/home/adamczer/paparazzi/var/aircrafts/Quad_LisaMX/ap/generated/modules.h **** #define MODULES_START 2
  10:/home/adamczer/paparazzi/var/aircrafts/Quad_LisaMX/ap/generated/modules.h **** #define MODULES_STOP  3
  11:/home/adamczer/paparazzi/var/aircrafts/Quad_LisaMX/ap/generated/modules.h **** 
  12:/home/adamczer/paparazzi/var/aircrafts/Quad_LisaMX/ap/generated/modules.h **** #define MODULES_FREQUENCY 512
  13:/home/adamczer/paparazzi/var/aircrafts/Quad_LisaMX/ap/generated/modules.h **** 
  14:/home/adamczer/paparazzi/var/aircrafts/Quad_LisaMX/ap/generated/modules.h **** #ifdef MODULES_C
  15:/home/adamczer/paparazzi/var/aircrafts/Quad_LisaMX/ap/generated/modules.h **** #define EXTERN_MODULES
  16:/home/adamczer/paparazzi/var/aircrafts/Quad_LisaMX/ap/generated/modules.h **** #else
  17:/home/adamczer/paparazzi/var/aircrafts/Quad_LisaMX/ap/generated/modules.h **** #define EXTERN_MODULES extern
  18:/home/adamczer/paparazzi/var/aircrafts/Quad_LisaMX/ap/generated/modules.h **** #endif
  19:/home/adamczer/paparazzi/var/aircrafts/Quad_LisaMX/ap/generated/modules.h **** #include "std.h"
  20:/home/adamczer/paparazzi/var/aircrafts/Quad_LisaMX/ap/generated/modules.h **** #include "adcs/adc_generic.h"
  21:/home/adamczer/paparazzi/var/aircrafts/Quad_LisaMX/ap/generated/modules.h **** #include "gps/gps_ubx_ucenter.h"
  22:/home/adamczer/paparazzi/var/aircrafts/Quad_LisaMX/ap/generated/modules.h **** #include "geo_mag/geo_mag.h"
  23:/home/adamczer/paparazzi/var/aircrafts/Quad_LisaMX/ap/generated/modules.h **** #include "air_data/air_data.h"
  24:/home/adamczer/paparazzi/var/aircrafts/Quad_LisaMX/ap/generated/modules.h **** 
  25:/home/adamczer/paparazzi/var/aircrafts/Quad_LisaMX/ap/generated/modules.h **** #define ADC_GENERIC_PERIODIC_PERIOD 0.250000
  26:/home/adamczer/paparazzi/var/aircrafts/Quad_LisaMX/ap/generated/modules.h **** #define ADC_GENERIC_PERIODIC_FREQ 4.000000
  27:/home/adamczer/paparazzi/var/aircrafts/Quad_LisaMX/ap/generated/modules.h **** #define GPS_UBX_UCENTER_PERIODIC_PERIOD 0.250000
  28:/home/adamczer/paparazzi/var/aircrafts/Quad_LisaMX/ap/generated/modules.h **** #define GPS_UBX_UCENTER_PERIODIC_FREQ 4.000000
  29:/home/adamczer/paparazzi/var/aircrafts/Quad_LisaMX/ap/generated/modules.h **** #define GEO_MAG_PERIODIC_PERIOD 1.000000
  30:/home/adamczer/paparazzi/var/aircrafts/Quad_LisaMX/ap/generated/modules.h **** #define GEO_MAG_PERIODIC_FREQ 1.000000
  31:/home/adamczer/paparazzi/var/aircrafts/Quad_LisaMX/ap/generated/modules.h **** #define AIR_DATA_PERIODIC_PERIOD 0.100000
  32:/home/adamczer/paparazzi/var/aircrafts/Quad_LisaMX/ap/generated/modules.h **** #define AIR_DATA_PERIODIC_FREQ 10.000000
  33:/home/adamczer/paparazzi/var/aircrafts/Quad_LisaMX/ap/generated/modules.h **** 
  34:/home/adamczer/paparazzi/var/aircrafts/Quad_LisaMX/ap/generated/modules.h **** EXTERN_MODULES uint8_t gps_ubx_gps_ubx_ucenter_periodic_status;
  35:/home/adamczer/paparazzi/var/aircrafts/Quad_LisaMX/ap/generated/modules.h **** 
  36:/home/adamczer/paparazzi/var/aircrafts/Quad_LisaMX/ap/generated/modules.h **** #ifdef MODULES_C
  37:/home/adamczer/paparazzi/var/aircrafts/Quad_LisaMX/ap/generated/modules.h **** 
  38:/home/adamczer/paparazzi/var/aircrafts/Quad_LisaMX/ap/generated/modules.h **** static inline void modules_init(void) {
  39:/home/adamczer/paparazzi/var/aircrafts/Quad_LisaMX/ap/generated/modules.h ****   adc_generic_init();
  40:/home/adamczer/paparazzi/var/aircrafts/Quad_LisaMX/ap/generated/modules.h ****   gps_ubx_ucenter_init();
  41:/home/adamczer/paparazzi/var/aircrafts/Quad_LisaMX/ap/generated/modules.h ****   gps_ubx_gps_ubx_ucenter_periodic_status = MODULES_START;
 126              		.loc 4 41 0
 127 0004 A34E     		ldr	r6, .L771
 128              	.LBE110:
 129              	.LBE109:
 134:firmwares/rotorcraft/main.c ****   main_init();
 135:firmwares/rotorcraft/main.c **** 
 136:firmwares/rotorcraft/main.c ****   while (1) {
 137:firmwares/rotorcraft/main.c ****     handle_periodic_tasks();
 138:firmwares/rotorcraft/main.c ****     main_event();
 139:firmwares/rotorcraft/main.c ****   }
 140:firmwares/rotorcraft/main.c ****   return 0;
 141:firmwares/rotorcraft/main.c **** }
 142:firmwares/rotorcraft/main.c **** #endif /* SITL */
 143:firmwares/rotorcraft/main.c **** 
 144:firmwares/rotorcraft/main.c **** STATIC_INLINE void main_init(void)
 145:firmwares/rotorcraft/main.c **** {
 146:firmwares/rotorcraft/main.c ****   mcu_init();
 147:firmwares/rotorcraft/main.c **** 
 148:firmwares/rotorcraft/main.c ****   electrical_init();
 149:firmwares/rotorcraft/main.c **** 
 150:firmwares/rotorcraft/main.c ****   stateInit();
 151:firmwares/rotorcraft/main.c **** 
 152:firmwares/rotorcraft/main.c ****   actuators_init();
 153:firmwares/rotorcraft/main.c **** #if USE_MOTOR_MIXING
 154:firmwares/rotorcraft/main.c ****   motor_mixing_init();
 155:firmwares/rotorcraft/main.c **** #endif
 156:firmwares/rotorcraft/main.c **** 
 157:firmwares/rotorcraft/main.c ****   radio_control_init();
 158:firmwares/rotorcraft/main.c **** 
 159:firmwares/rotorcraft/main.c **** #if USE_BARO_BOARD
 160:firmwares/rotorcraft/main.c ****   baro_init();
 161:firmwares/rotorcraft/main.c **** #endif
 162:firmwares/rotorcraft/main.c ****   imu_init();
 163:firmwares/rotorcraft/main.c ****   ahrs_aligner_init();
 164:firmwares/rotorcraft/main.c ****   ahrs_init();
 165:firmwares/rotorcraft/main.c ****   ins_init();
 166:firmwares/rotorcraft/main.c **** 
 167:firmwares/rotorcraft/main.c **** #if USE_GPS
 168:firmwares/rotorcraft/main.c ****   gps_init();
 169:firmwares/rotorcraft/main.c **** #endif
 170:firmwares/rotorcraft/main.c **** 
 171:firmwares/rotorcraft/main.c ****   autopilot_init();
 172:firmwares/rotorcraft/main.c **** 
 173:firmwares/rotorcraft/main.c ****   modules_init();
 174:firmwares/rotorcraft/main.c **** 
 175:firmwares/rotorcraft/main.c ****   settings_init();
 176:firmwares/rotorcraft/main.c **** 
 177:firmwares/rotorcraft/main.c ****   mcu_int_enable();
 178:firmwares/rotorcraft/main.c **** 
 179:firmwares/rotorcraft/main.c **** #if DOWNLINK
 180:firmwares/rotorcraft/main.c ****   downlink_init();
 181:firmwares/rotorcraft/main.c **** #endif
 182:firmwares/rotorcraft/main.c **** 
 183:firmwares/rotorcraft/main.c ****   // register the timers for the periodic functions
 184:firmwares/rotorcraft/main.c ****   main_periodic_tid = sys_time_register_timer((1. / PERIODIC_FREQUENCY), NULL);
 130              		.loc 3 184 0
 131 0006 DFF8E0A2 		ldr	r10, .L771+84
 185:firmwares/rotorcraft/main.c ****   modules_tid = sys_time_register_timer(1. / MODULES_FREQUENCY, NULL);
 132              		.loc 3 185 0
 133 000a DFF8E092 		ldr	r9, .L771+88
 186:firmwares/rotorcraft/main.c ****   radio_control_tid = sys_time_register_timer((1. / 60.), NULL);
 134              		.loc 3 186 0
 135 000e DFF8E082 		ldr	r8, .L771+92
 187:firmwares/rotorcraft/main.c ****   failsafe_tid = sys_time_register_timer(0.05, NULL);
 136              		.loc 3 187 0
 137 0012 A14F     		ldr	r7, .L771+4
 188:firmwares/rotorcraft/main.c ****   electrical_tid = sys_time_register_timer(0.1, NULL);
 138              		.loc 3 188 0
 139 0014 A14D     		ldr	r5, .L771+8
 189:firmwares/rotorcraft/main.c ****   telemetry_tid = sys_time_register_timer((1. / TELEMETRY_FREQUENCY), NULL);
 140              		.loc 3 189 0
 141 0016 A24C     		ldr	r4, .L771+12
 146:firmwares/rotorcraft/main.c **** 
 142              		.loc 3 146 0
 143 0018 FFF7FEFF 		bl	mcu_init
 144              	.LVL5:
 148:firmwares/rotorcraft/main.c **** 
 145              		.loc 3 148 0
 146 001c FFF7FEFF 		bl	electrical_init
 147              	.LVL6:
 150:firmwares/rotorcraft/main.c **** 
 148              		.loc 3 150 0
 149 0020 FFF7FEFF 		bl	stateInit
 150              	.LVL7:
 152:firmwares/rotorcraft/main.c **** #if USE_MOTOR_MIXING
 151              		.loc 3 152 0
 152 0024 FFF7FEFF 		bl	actuators_init
 153              	.LVL8:
 154:firmwares/rotorcraft/main.c **** #endif
 154              		.loc 3 154 0
 155 0028 FFF7FEFF 		bl	motor_mixing_init
 156              	.LVL9:
 157:firmwares/rotorcraft/main.c **** 
 157              		.loc 3 157 0
 158 002c FFF7FEFF 		bl	radio_control_init
 159              	.LVL10:
 160:firmwares/rotorcraft/main.c **** #endif
 160              		.loc 3 160 0
 161 0030 FFF7FEFF 		bl	baro_init
 162              	.LVL11:
 162:firmwares/rotorcraft/main.c ****   ahrs_aligner_init();
 163              		.loc 3 162 0
 164 0034 FFF7FEFF 		bl	imu_init
 165              	.LVL12:
 163:firmwares/rotorcraft/main.c ****   ahrs_init();
 166              		.loc 3 163 0
 167 0038 FFF7FEFF 		bl	ahrs_aligner_init
 168              	.LVL13:
 164:firmwares/rotorcraft/main.c ****   ins_init();
 169              		.loc 3 164 0
 170 003c FFF7FEFF 		bl	ahrs_init
 171              	.LVL14:
 165:firmwares/rotorcraft/main.c **** 
 172              		.loc 3 165 0
 173 0040 FFF7FEFF 		bl	ins_init
 174              	.LVL15:
 168:firmwares/rotorcraft/main.c **** #endif
 175              		.loc 3 168 0
 176 0044 FFF7FEFF 		bl	gps_init
 177              	.LVL16:
 171:firmwares/rotorcraft/main.c **** 
 178              		.loc 3 171 0
 179 0048 FFF7FEFF 		bl	autopilot_init
 180              	.LVL17:
 181              	.LBB112:
 182              	.LBB111:
  39:/home/adamczer/paparazzi/var/aircrafts/Quad_LisaMX/ap/generated/modules.h ****   gps_ubx_ucenter_init();
 183              		.loc 4 39 0
 184 004c FFF7FEFF 		bl	adc_generic_init
 185              	.LVL18:
  40:/home/adamczer/paparazzi/var/aircrafts/Quad_LisaMX/ap/generated/modules.h ****   gps_ubx_gps_ubx_ucenter_periodic_status = MODULES_START;
 186              		.loc 4 40 0
 187 0050 FFF7FEFF 		bl	gps_ubx_ucenter_init
 188              	.LVL19:
 189              		.loc 4 41 0
 190 0054 0223     		movs	r3, #2
 191 0056 3370     		strb	r3, [r6]
  42:/home/adamczer/paparazzi/var/aircrafts/Quad_LisaMX/ap/generated/modules.h ****   geo_mag_init();
 192              		.loc 4 42 0
 193 0058 FFF7FEFF 		bl	geo_mag_init
 194              	.LVL20:
  43:/home/adamczer/paparazzi/var/aircrafts/Quad_LisaMX/ap/generated/modules.h ****   air_data_init();
 195              		.loc 4 43 0
 196 005c FFF7FEFF 		bl	air_data_init
 197              	.LVL21:
 198              	.LBE111:
 199              	.LBE112:
 175:firmwares/rotorcraft/main.c **** 
 200              		.loc 3 175 0
 201 0060 FFF7FEFF 		bl	settings_init
 202              	.LVL22:
 180:firmwares/rotorcraft/main.c **** #endif
 203              		.loc 3 180 0
 204 0064 FFF7FEFF 		bl	downlink_init
 205              	.LVL23:
 184:firmwares/rotorcraft/main.c ****   modules_tid = sys_time_register_timer(1. / MODULES_FREQUENCY, NULL);
 206              		.loc 3 184 0
 207 0068 0021     		movs	r1, #0
 208 006a 4FF06C50 		mov	r0, #989855744
 209 006e FFF7FEFF 		bl	sys_time_register_timer
 210              	.LVL24:
 185:firmwares/rotorcraft/main.c ****   radio_control_tid = sys_time_register_timer((1. / 60.), NULL);
 211              		.loc 3 185 0
 212 0072 0021     		movs	r1, #0
 184:firmwares/rotorcraft/main.c ****   modules_tid = sys_time_register_timer(1. / MODULES_FREQUENCY, NULL);
 213              		.loc 3 184 0
 214 0074 8AF80000 		strb	r0, [r10]
 185:firmwares/rotorcraft/main.c ****   radio_control_tid = sys_time_register_timer((1. / 60.), NULL);
 215              		.loc 3 185 0
 216 0078 4FF06C50 		mov	r0, #989855744
 217 007c FFF7FEFF 		bl	sys_time_register_timer
 218              	.LVL25:
 186:firmwares/rotorcraft/main.c ****   failsafe_tid = sys_time_register_timer(0.05, NULL);
 219              		.loc 3 186 0
 220 0080 0021     		movs	r1, #0
 185:firmwares/rotorcraft/main.c ****   radio_control_tid = sys_time_register_timer((1. / 60.), NULL);
 221              		.loc 3 185 0
 222 0082 89F80000 		strb	r0, [r9]
 186:firmwares/rotorcraft/main.c ****   failsafe_tid = sys_time_register_timer(0.05, NULL);
 223              		.loc 3 186 0
 224 0086 8748     		ldr	r0, .L771+16
 225 0088 FFF7FEFF 		bl	sys_time_register_timer
 226              	.LVL26:
 187:firmwares/rotorcraft/main.c ****   electrical_tid = sys_time_register_timer(0.1, NULL);
 227              		.loc 3 187 0
 228 008c 0021     		movs	r1, #0
 186:firmwares/rotorcraft/main.c ****   failsafe_tid = sys_time_register_timer(0.05, NULL);
 229              		.loc 3 186 0
 230 008e 88F80000 		strb	r0, [r8]
 187:firmwares/rotorcraft/main.c ****   electrical_tid = sys_time_register_timer(0.1, NULL);
 231              		.loc 3 187 0
 232 0092 8548     		ldr	r0, .L771+20
 233 0094 FFF7FEFF 		bl	sys_time_register_timer
 234              	.LVL27:
 188:firmwares/rotorcraft/main.c ****   telemetry_tid = sys_time_register_timer((1. / TELEMETRY_FREQUENCY), NULL);
 235              		.loc 3 188 0
 236 0098 0021     		movs	r1, #0
 187:firmwares/rotorcraft/main.c ****   electrical_tid = sys_time_register_timer(0.1, NULL);
 237              		.loc 3 187 0
 238 009a 3870     		strb	r0, [r7]
 188:firmwares/rotorcraft/main.c ****   telemetry_tid = sys_time_register_timer((1. / TELEMETRY_FREQUENCY), NULL);
 239              		.loc 3 188 0
 240 009c 8348     		ldr	r0, .L771+24
 241 009e FFF7FEFF 		bl	sys_time_register_timer
 242              	.LVL28:
 243              		.loc 3 189 0
 244 00a2 0021     		movs	r1, #0
 188:firmwares/rotorcraft/main.c ****   telemetry_tid = sys_time_register_timer((1. / TELEMETRY_FREQUENCY), NULL);
 245              		.loc 3 188 0
 246 00a4 2870     		strb	r0, [r5]
 247              		.loc 3 189 0
 248 00a6 4FF06C50 		mov	r0, #989855744
 249 00aa FFF7FEFF 		bl	sys_time_register_timer
 250              	.LVL29:
 190:firmwares/rotorcraft/main.c **** #if USE_BARO_BOARD
 191:firmwares/rotorcraft/main.c ****   baro_tid = sys_time_register_timer(1. / BARO_PERIODIC_FREQUENCY, NULL);
 251              		.loc 3 191 0
 252 00ae 0021     		movs	r1, #0
 189:firmwares/rotorcraft/main.c **** #if USE_BARO_BOARD
 253              		.loc 3 189 0
 254 00b0 2070     		strb	r0, [r4]
 255              		.loc 3 191 0
 256 00b2 7F48     		ldr	r0, .L771+28
 257 00b4 FFF7FEFF 		bl	sys_time_register_timer
 258              	.LVL30:
 259 00b8 7E4B     		ldr	r3, .L771+32
 260 00ba CDF80490 		str	r9, [sp, #4]
 261 00be CDF80880 		str	r8, [sp, #8]
 262 00c2 1870     		strb	r0, [r3]
 263 00c4 CDF800A0 		str	r10, [sp]
 264 00c8 0397     		str	r7, [sp, #12]
 265 00ca 0495     		str	r5, [sp, #16]
 266 00cc A046     		mov	r8, r4
 267 00ce 9946     		mov	r9, r3
 268              	.L343:
 269              	.LVL31:
 270              	.LBE108:
 271              	.LBE107:
 272              	.LBB113:
 273              	.LBB114:
 274              	.LBB115:
 275              	.LBB116:
 113:./mcu_periph/sys_time.h ****     sys_time.timer[id].elapsed = FALSE;
 276              		.loc 2 113 0 discriminator 1
 277 00d0 009B     		ldr	r3, [sp]
 278 00d2 794D     		ldr	r5, .L771+36
 279 00d4 1B78     		ldrb	r3, [r3]	@ zero_extendqisi2
 280 00d6 1422     		movs	r2, #20
 281 00d8 02FB0353 		mla	r3, r2, r3, r5
 282 00dc 1033     		adds	r3, r3, #16
 283 00de 1A79     		ldrb	r2, [r3, #4]	@ zero_extendqisi2
 284 00e0 2F46     		mov	r7, r5
 285 00e2 002A     		cmp	r2, #0
 286 00e4 00F08F80 		beq	.L6
 114:./mcu_periph/sys_time.h ****     return TRUE;
 287              		.loc 2 114 0
 288 00e8 0024     		movs	r4, #0
 289 00ea 1C71     		strb	r4, [r3, #4]
 290              	.LBE116:
 291              	.LBE115:
 292              	.LBB117:
 293              	.LBB118:
 192:firmwares/rotorcraft/main.c **** #endif
 193:firmwares/rotorcraft/main.c **** }
 194:firmwares/rotorcraft/main.c **** 
 195:firmwares/rotorcraft/main.c **** STATIC_INLINE void handle_periodic_tasks(void)
 196:firmwares/rotorcraft/main.c **** {
 197:firmwares/rotorcraft/main.c ****   if (sys_time_check_and_ack_timer(main_periodic_tid)) {
 198:firmwares/rotorcraft/main.c ****     main_periodic();
 199:firmwares/rotorcraft/main.c ****   }
 200:firmwares/rotorcraft/main.c ****   if (sys_time_check_and_ack_timer(modules_tid)) {
 201:firmwares/rotorcraft/main.c ****     modules_periodic_task();
 202:firmwares/rotorcraft/main.c ****   }
 203:firmwares/rotorcraft/main.c ****   if (sys_time_check_and_ack_timer(radio_control_tid)) {
 204:firmwares/rotorcraft/main.c ****     radio_control_periodic_task();
 205:firmwares/rotorcraft/main.c ****   }
 206:firmwares/rotorcraft/main.c ****   if (sys_time_check_and_ack_timer(failsafe_tid)) {
 207:firmwares/rotorcraft/main.c ****     failsafe_check();
 208:firmwares/rotorcraft/main.c ****   }
 209:firmwares/rotorcraft/main.c ****   if (sys_time_check_and_ack_timer(electrical_tid)) {
 210:firmwares/rotorcraft/main.c ****     electrical_periodic();
 211:firmwares/rotorcraft/main.c ****   }
 212:firmwares/rotorcraft/main.c ****   if (sys_time_check_and_ack_timer(telemetry_tid)) {
 213:firmwares/rotorcraft/main.c ****     telemetry_periodic();
 214:firmwares/rotorcraft/main.c ****   }
 215:firmwares/rotorcraft/main.c **** #if USE_BARO_BOARD
 216:firmwares/rotorcraft/main.c ****   if (sys_time_check_and_ack_timer(baro_tid)) {
 217:firmwares/rotorcraft/main.c ****     baro_periodic();
 218:firmwares/rotorcraft/main.c ****   }
 219:firmwares/rotorcraft/main.c **** #endif
 220:firmwares/rotorcraft/main.c **** }
 221:firmwares/rotorcraft/main.c **** 
 222:firmwares/rotorcraft/main.c **** STATIC_INLINE void main_periodic(void)
 223:firmwares/rotorcraft/main.c **** {
 224:firmwares/rotorcraft/main.c **** 
 225:firmwares/rotorcraft/main.c ****   imu_periodic();
 294              		.loc 3 225 0
 295 00ec FFF7FEFF 		bl	imu_periodic
 296              	.LVL32:
 226:firmwares/rotorcraft/main.c **** 
 227:firmwares/rotorcraft/main.c ****   /* run control loops */
 228:firmwares/rotorcraft/main.c ****   autopilot_periodic();
 297              		.loc 3 228 0
 298 00f0 FFF7FEFF 		bl	autopilot_periodic
 299              	.LVL33:
 300              	.LBB119:
 229:firmwares/rotorcraft/main.c ****   /* set actuators     */
 230:firmwares/rotorcraft/main.c ****   //actuators_set(autopilot_motors_on);
 231:firmwares/rotorcraft/main.c ****   SetActuatorsFromCommands(commands, autopilot_mode);
 301              		.loc 3 231 0
 302 00f4 714B     		ldr	r3, .L771+40
 303 00f6 724A     		ldr	r2, .L771+44
 304 00f8 1878     		ldrb	r0, [r3]	@ zero_extendqisi2
 305 00fa 2146     		mov	r1, r4
 306 00fc FFF7FEFF 		bl	motor_mixing_run
 307              	.LVL34:
 308 0100 704A     		ldr	r2, .L771+48
 309 0102 1368     		ldr	r3, [r2]
 310              	.LVL35:
 311 0104 A342     		cmp	r3, r4
 312 0106 CCBF     		ite	gt
 313 0108 0C21     		movgt	r1, #12
 314 010a 6021     		movle	r1, #96
 315              	.LVL36:
 316 010c 93FBF1F3 		sdiv	r3, r3, r1
 317              	.LVL37:
 318 0110 03F24C43 		addw	r3, r3, #1100
 319              	.LVL38:
 320 0114 B3F57A7F 		cmp	r3, #1000
 321 0118 06DB     		blt	.L345
 322 011a 40F26C71 		movw	r1, #1900
 323 011e 8B42     		cmp	r3, r1
 324 0120 A8BF     		it	ge
 325 0122 0B46     		movge	r3, r1
 326              	.LVL39:
 327 0124 9BB2     		uxth	r3, r3
 328 0126 01E0     		b	.L8
 329              	.LVL40:
 330              	.L345:
 331 0128 4FF47A73 		mov	r3, #1000
 332              	.LVL41:
 333              	.L8:
 334 012c 6648     		ldr	r0, .L771+52
 335 012e 6749     		ldr	r1, .L771+56
 336 0130 0380     		strh	r3, [r0]	@ movhi
 337 0132 1BB2     		sxth	r3, r3
 338 0134 0B60     		str	r3, [r1]
 339 0136 5368     		ldr	r3, [r2, #4]
 340              	.LVL42:
 341 0138 002B     		cmp	r3, #0
 342 013a CCBF     		ite	gt
 343 013c 0C24     		movgt	r4, #12
 344 013e 6024     		movle	r4, #96
 345              	.LVL43:
 346 0140 93FBF4F3 		sdiv	r3, r3, r4
 347              	.LVL44:
 348 0144 03F24C43 		addw	r3, r3, #1100
 349              	.LVL45:
 350 0148 B3F57A7F 		cmp	r3, #1000
 351 014c 06DB     		blt	.L347
 352 014e 40F26C74 		movw	r4, #1900
 353 0152 A342     		cmp	r3, r4
 354 0154 A8BF     		it	ge
 355 0156 2346     		movge	r3, r4
 356              	.LVL46:
 357 0158 9BB2     		uxth	r3, r3
 358 015a 01E0     		b	.L10
 359              	.LVL47:
 360              	.L347:
 361 015c 4FF47A73 		mov	r3, #1000
 362              	.LVL48:
 363              	.L10:
 364 0160 4380     		strh	r3, [r0, #2]	@ movhi
 365 0162 1BB2     		sxth	r3, r3
 366 0164 4B60     		str	r3, [r1, #4]
 367 0166 9368     		ldr	r3, [r2, #8]
 368              	.LVL49:
 369 0168 002B     		cmp	r3, #0
 370 016a CCBF     		ite	gt
 371 016c 0C24     		movgt	r4, #12
 372 016e 6024     		movle	r4, #96
 373              	.LVL50:
 374 0170 93FBF4F3 		sdiv	r3, r3, r4
 375              	.LVL51:
 376 0174 03F24C43 		addw	r3, r3, #1100
 377              	.LVL52:
 378 0178 B3F57A7F 		cmp	r3, #1000
 379 017c 06DB     		blt	.L349
 380 017e 40F26C74 		movw	r4, #1900
 381 0182 A342     		cmp	r3, r4
 382 0184 A8BF     		it	ge
 383 0186 2346     		movge	r3, r4
 384              	.LVL53:
 385 0188 9BB2     		uxth	r3, r3
 386 018a 01E0     		b	.L12
 387              	.LVL54:
 388              	.L349:
 389 018c 4FF47A73 		mov	r3, #1000
 390              	.LVL55:
 391              	.L12:
 392 0190 8380     		strh	r3, [r0, #4]	@ movhi
 393 0192 1BB2     		sxth	r3, r3
 394 0194 8B60     		str	r3, [r1, #8]
 395 0196 D368     		ldr	r3, [r2, #12]
 396              	.LVL56:
 397 0198 002B     		cmp	r3, #0
 398 019a CCBF     		ite	gt
 399 019c 0C22     		movgt	r2, #12
 400 019e 6022     		movle	r2, #96
 401              	.LVL57:
 402 01a0 93FBF2F3 		sdiv	r3, r3, r2
 403              	.LVL58:
 404 01a4 03F24C43 		addw	r3, r3, #1100
 405              	.LVL59:
 406 01a8 B3F57A7F 		cmp	r3, #1000
 407 01ac 06DB     		blt	.L351
 408 01ae 40F26C72 		movw	r2, #1900
 409 01b2 9342     		cmp	r3, r2
 410 01b4 A8BF     		it	ge
 411 01b6 1346     		movge	r3, r2
 412              	.LVL60:
 413 01b8 9BB2     		uxth	r3, r3
 414 01ba 01E0     		b	.L14
 415              	.LVL61:
 416              	.L351:
 417 01bc 4FF47A73 		mov	r3, #1000
 418              	.LVL62:
 419              	.L14:
 420 01c0 C380     		strh	r3, [r0, #6]	@ movhi
 421 01c2 1BB2     		sxth	r3, r3
 422 01c4 CB60     		str	r3, [r1, #12]
 423 01c6 FFF7FEFF 		bl	actuators_pwm_commit
 424              	.LVL63:
 425              	.LBE119:
 232:firmwares/rotorcraft/main.c **** 
 233:firmwares/rotorcraft/main.c ****   if (autopilot_in_flight) {
 426              		.loc 3 233 0
 427 01ca 414B     		ldr	r3, .L771+60
 428 01cc 1B78     		ldrb	r3, [r3]	@ zero_extendqisi2
 429 01ce 93B1     		cbz	r3, .L16
 430              	.LBB120:
 234:firmwares/rotorcraft/main.c ****     RunOnceEvery(PERIODIC_FREQUENCY, { autopilot_flight_time++;
 431              		.loc 3 234 0
 432 01d0 404A     		ldr	r2, .L771+64
 433 01d2 1388     		ldrh	r3, [r2]
 434 01d4 0133     		adds	r3, r3, #1
 435 01d6 9BB2     		uxth	r3, r3
 436 01d8 B3F5007F 		cmp	r3, #512
 437 01dc 21BF     		itttt	cs
 438 01de 0023     		movcs	r3, #0
 439 01e0 1380     		strhcs	r3, [r2]	@ movhi
 440 01e2 3D4A     		ldrcs	r2, .L771+68
 441 01e4 1388     		ldrhcs	r3, [r2]
 442 01e6 21BF     		itttt	cs
 443 01e8 0133     		addcs	r3, r3, #1
 444 01ea 1380     		strhcs	r3, [r2]	@ movhi
 445 01ec 3B4A     		ldrcs	r2, .L771+72
 446 01ee 1388     		ldrhcs	r3, [r2]
 447 01f0 28BF     		it	cs
 448 01f2 0133     		addcs	r3, r3, #1
 449 01f4 1380     		strh	r3, [r2]	@ movhi
 450              	.L16:
 451              	.LBE120:
 452              	.LBB121:
 235:firmwares/rotorcraft/main.c **** #if defined DATALINK || defined SITL
 236:firmwares/rotorcraft/main.c ****                                        datalink_time++;
 237:firmwares/rotorcraft/main.c **** #endif
 238:firmwares/rotorcraft/main.c ****                                      });
 239:firmwares/rotorcraft/main.c ****   }
 240:firmwares/rotorcraft/main.c **** 
 241:firmwares/rotorcraft/main.c ****   RunOnceEvery(10, LED_PERIODIC());
 453              		.loc 3 241 0
 454 01f6 3A4A     		ldr	r2, .L771+76
 455 01f8 1388     		ldrh	r3, [r2]
 456 01fa 0133     		adds	r3, r3, #1
 457 01fc 9BB2     		uxth	r3, r3
 458 01fe 092B     		cmp	r3, #9
 459 0200 88BF     		it	hi
 460 0202 0023     		movhi	r3, #0
 461 0204 1380     		strh	r3, [r2]	@ movhi
 462              	.L6:
 463              	.LVL64:
 464              	.LBE121:
 465              	.LBE118:
 466              	.LBE117:
 467              	.LBB122:
 468              	.LBB123:
 113:./mcu_periph/sys_time.h ****     sys_time.timer[id].elapsed = FALSE;
 469              		.loc 2 113 0
 470 0206 019B     		ldr	r3, [sp, #4]
 471 0208 1B78     		ldrb	r3, [r3]	@ zero_extendqisi2
 472 020a 1422     		movs	r2, #20
 473 020c 02FB0373 		mla	r3, r2, r3, r7
 474 0210 1033     		adds	r3, r3, #16
 475 0212 1A79     		ldrb	r2, [r3, #4]	@ zero_extendqisi2
 476 0214 002A     		cmp	r2, #0
 477 0216 7DD0     		beq	.L22
 478              	.LBE123:
 479              	.LBE122:
 480              	.LBB125:
 481              	.LBB126:
  44:/home/adamczer/paparazzi/var/aircrafts/Quad_LisaMX/ap/generated/modules.h **** }
  45:/home/adamczer/paparazzi/var/aircrafts/Quad_LisaMX/ap/generated/modules.h **** 
  46:/home/adamczer/paparazzi/var/aircrafts/Quad_LisaMX/ap/generated/modules.h **** static inline void modules_periodic_task(void) {
  47:/home/adamczer/paparazzi/var/aircrafts/Quad_LisaMX/ap/generated/modules.h ****   static uint8_t i51; i51++; if (i51>=51) i51=0;
 482              		.loc 4 47 0
 483 0218 DFF8D8B0 		ldr	fp, .L771+96
  48:/home/adamczer/paparazzi/var/aircrafts/Quad_LisaMX/ap/generated/modules.h ****   static uint8_t i128; i128++; if (i128>=128) i128=0;
 484              		.loc 4 48 0
 485 021c DFF8D8A0 		ldr	r10, .L771+100
  49:/home/adamczer/paparazzi/var/aircrafts/Quad_LisaMX/ap/generated/modules.h ****   static uint16_t i512; i512++; if (i512>=512) i512=0;
 486              		.loc 4 49 0
 487 0220 304C     		ldr	r4, .L771+80
 488              	.LBE126:
 489              	.LBE125:
 490              	.LBB128:
 491              	.LBB124:
 114:./mcu_periph/sys_time.h ****     return TRUE;
 492              		.loc 2 114 0
 493 0222 0022     		movs	r2, #0
 494 0224 1A71     		strb	r2, [r3, #4]
 495              	.LBE124:
 496              	.LBE128:
 497              	.LBB129:
 498              	.LBB127:
  47:/home/adamczer/paparazzi/var/aircrafts/Quad_LisaMX/ap/generated/modules.h ****   static uint8_t i128; i128++; if (i128>=128) i128=0;
 499              		.loc 4 47 0
 500 0226 9BF80030 		ldrb	r3, [fp]	@ zero_extendqisi2
 501 022a 0133     		adds	r3, r3, #1
 502 022c DBB2     		uxtb	r3, r3
 503 022e 322B     		cmp	r3, #50
 504 0230 98BF     		it	ls
 505 0232 8BF80030 		strbls	r3, [fp]
  48:/home/adamczer/paparazzi/var/aircrafts/Quad_LisaMX/ap/generated/modules.h ****   static uint16_t i512; i512++; if (i512>=512) i512=0;
 506              		.loc 4 48 0
 507 0236 9AF80030 		ldrb	r3, [r10]	@ zero_extendqisi2
  47:/home/adamczer/paparazzi/var/aircrafts/Quad_LisaMX/ap/generated/modules.h ****   static uint8_t i128; i128++; if (i128>=128) i128=0;
 508              		.loc 4 47 0
 509 023a 88BF     		it	hi
 510 023c 8BF80020 		strbhi	r2, [fp]
  48:/home/adamczer/paparazzi/var/aircrafts/Quad_LisaMX/ap/generated/modules.h ****   static uint16_t i512; i512++; if (i512>=512) i512=0;
 511              		.loc 4 48 0
 512 0240 0133     		adds	r3, r3, #1
 513 0242 DBB2     		uxtb	r3, r3
 514 0244 1806     		lsls	r0, r3, #24
 515 0246 48BF     		it	mi
 516 0248 0023     		movmi	r3, #0
 517 024a 8AF80030 		strb	r3, [r10]
 518              		.loc 4 49 0
 519 024e 2388     		ldrh	r3, [r4]
 520 0250 0133     		adds	r3, r3, #1
 521 0252 9BB2     		uxth	r3, r3
 522 0254 B3F5007F 		cmp	r3, #512
 523 0258 28BF     		it	cs
 524 025a 0023     		movcs	r3, #0
 525 025c 2380     		strh	r3, [r4]	@ movhi
  50:/home/adamczer/paparazzi/var/aircrafts/Quad_LisaMX/ap/generated/modules.h **** 
  51:/home/adamczer/paparazzi/var/aircrafts/Quad_LisaMX/ap/generated/modules.h **** 
  52:/home/adamczer/paparazzi/var/aircrafts/Quad_LisaMX/ap/generated/modules.h ****   if (gps_ubx_gps_ubx_ucenter_periodic_status == MODULES_START) {
 526              		.loc 4 52 0
 527 025e 3378     		ldrb	r3, [r6]	@ zero_extendqisi2
 528 0260 022B     		cmp	r3, #2
 529 0262 04D1     		bne	.L29
  53:/home/adamczer/paparazzi/var/aircrafts/Quad_LisaMX/ap/generated/modules.h ****     gps_ubx_ucenter_init();
 530              		.loc 4 53 0
 531 0264 FFF7FEFF 		bl	gps_ubx_ucenter_init
 532              	.LVL65:
  54:/home/adamczer/paparazzi/var/aircrafts/Quad_LisaMX/ap/generated/modules.h ****     gps_ubx_gps_ubx_ucenter_periodic_status = MODULES_RUN;
 533              		.loc 4 54 0
 534 0268 0A4B     		ldr	r3, .L771
 535 026a 0122     		movs	r2, #1
 536 026c 1A70     		strb	r2, [r3]
 537              	.L29:
  55:/home/adamczer/paparazzi/var/aircrafts/Quad_LisaMX/ap/generated/modules.h ****   }
  56:/home/adamczer/paparazzi/var/aircrafts/Quad_LisaMX/ap/generated/modules.h ****   if (gps_ubx_gps_ubx_ucenter_periodic_status == MODULES_STOP) {
 538              		.loc 4 56 0
 539 026e 3378     		ldrb	r3, [r6]	@ zero_extendqisi2
 540 0270 032B     		cmp	r3, #3
  57:/home/adamczer/paparazzi/var/aircrafts/Quad_LisaMX/ap/generated/modules.h ****     gps_ubx_gps_ubx_ucenter_periodic_status = MODULES_IDLE;
 541              		.loc 4 57 0
 542 0272 02BF     		ittt	eq
 543 0274 074B     		ldreq	r3, .L771
 544 0276 0022     		moveq	r2, #0
 545 0278 1A70     		strbeq	r2, [r3]
  58:/home/adamczer/paparazzi/var/aircrafts/Quad_LisaMX/ap/generated/modules.h ****   }
  59:/home/adamczer/paparazzi/var/aircrafts/Quad_LisaMX/ap/generated/modules.h **** 
  60:/home/adamczer/paparazzi/var/aircrafts/Quad_LisaMX/ap/generated/modules.h **** 
  61:/home/adamczer/paparazzi/var/aircrafts/Quad_LisaMX/ap/generated/modules.h **** 
  62:/home/adamczer/paparazzi/var/aircrafts/Quad_LisaMX/ap/generated/modules.h ****   if (i51 == 0) {
 546              		.loc 4 62 0
 547 027a 9BF80030 		ldrb	r3, [fp]	@ zero_extendqisi2
 548 027e 0BB9     		cbnz	r3, .L31
  63:/home/adamczer/paparazzi/var/aircrafts/Quad_LisaMX/ap/generated/modules.h ****     air_data_periodic();
 549              		.loc 4 63 0
 550 0280 FFF7FEFF 		bl	air_data_periodic
 551              	.LVL66:
 552              	.L31:
  64:/home/adamczer/paparazzi/var/aircrafts/Quad_LisaMX/ap/generated/modules.h ****   }
  65:/home/adamczer/paparazzi/var/aircrafts/Quad_LisaMX/ap/generated/modules.h ****   if (i128 == 25) {
 553              		.loc 4 65 0
 554 0284 9AF80030 		ldrb	r3, [r10]	@ zero_extendqisi2
 555 0288 192B     		cmp	r3, #25
 556 028a 37D1     		bne	.L32
  66:/home/adamczer/paparazzi/var/aircrafts/Quad_LisaMX/ap/generated/modules.h ****     adc_generic_periodic();
 557              		.loc 4 66 0
 558 028c FFF7FEFF 		bl	adc_generic_periodic
 559              	.LVL67:
 560 0290 3BE0     		b	.L33
 561              	.L772:
 562 0292 00BF     		.align	2
 563              	.L771:
 564 0294 00000000 		.word	.LANCHOR0
 565 0298 00000000 		.word	.LANCHOR4
 566 029c 00000000 		.word	.LANCHOR5
 567 02a0 00000000 		.word	.LANCHOR6
 568 02a4 8988883C 		.word	1015580809
 569 02a8 CDCC4C3D 		.word	1028443341
 570 02ac CDCCCC3D 		.word	1036831949
 571 02b0 0AD7A33C 		.word	1017370378
 572 02b4 00000000 		.word	.LANCHOR7
 573 02b8 00000000 		.word	sys_time
 574 02bc 00000000 		.word	autopilot_motors_on
 575 02c0 00000000 		.word	commands
 576 02c4 00000000 		.word	motor_mixing
 577 02c8 00000000 		.word	actuators
 578 02cc 00000000 		.word	actuators_pwm_values
 579 02d0 00000000 		.word	autopilot_in_flight
 580 02d4 00000000 		.word	.LANCHOR8
 581 02d8 00000000 		.word	autopilot_flight_time
 582 02dc 00000000 		.word	datalink_time
 583 02e0 00000000 		.word	.LANCHOR9
 584 02e4 00000000 		.word	.LANCHOR12
 585 02e8 00000000 		.word	.LANCHOR1
 586 02ec 00000000 		.word	.LANCHOR2
 587 02f0 00000000 		.word	.LANCHOR3
 588 02f4 00000000 		.word	.LANCHOR10
 589 02f8 00000000 		.word	.LANCHOR11
 590              	.L32:
  67:/home/adamczer/paparazzi/var/aircrafts/Quad_LisaMX/ap/generated/modules.h ****   }
  68:/home/adamczer/paparazzi/var/aircrafts/Quad_LisaMX/ap/generated/modules.h ****   else if (i128 == 67 && gps_ubx_gps_ubx_ucenter_periodic_status == MODULES_RUN) {
 591              		.loc 4 68 0
 592 02fc 432B     		cmp	r3, #67
 593 02fe 04D1     		bne	.L33
 594 0300 3378     		ldrb	r3, [r6]	@ zero_extendqisi2
 595 0302 012B     		cmp	r3, #1
 596 0304 01D1     		bne	.L33
  69:/home/adamczer/paparazzi/var/aircrafts/Quad_LisaMX/ap/generated/modules.h ****     gps_ubx_ucenter_periodic();
 597              		.loc 4 69 0
 598 0306 FFF7FEFF 		bl	gps_ubx_ucenter_periodic
 599              	.LVL68:
 600              	.L33:
  70:/home/adamczer/paparazzi/var/aircrafts/Quad_LisaMX/ap/generated/modules.h ****   }
  71:/home/adamczer/paparazzi/var/aircrafts/Quad_LisaMX/ap/generated/modules.h ****   if (i512 == 109) {
 601              		.loc 4 71 0
 602 030a 2388     		ldrh	r3, [r4]
 603 030c 6D2B     		cmp	r3, #109
 604 030e 01D1     		bne	.L22
  72:/home/adamczer/paparazzi/var/aircrafts/Quad_LisaMX/ap/generated/modules.h ****     geo_mag_periodic();
 605              		.loc 4 72 0
 606 0310 FFF7FEFF 		bl	geo_mag_periodic
 607              	.LVL69:
 608              	.L22:
 609              	.LBE127:
 610              	.LBE129:
 611              	.LBB130:
 612              	.LBB131:
 113:./mcu_periph/sys_time.h ****     sys_time.timer[id].elapsed = FALSE;
 613              		.loc 2 113 0
 614 0314 029B     		ldr	r3, [sp, #8]
 615 0316 1B78     		ldrb	r3, [r3]	@ zero_extendqisi2
 616 0318 1422     		movs	r2, #20
 617 031a 02FB0373 		mla	r3, r2, r3, r7
 618 031e 1033     		adds	r3, r3, #16
 619 0320 1A79     		ldrb	r2, [r3, #4]	@ zero_extendqisi2
 620 0322 1AB1     		cbz	r2, .L35
 114:./mcu_periph/sys_time.h ****     return TRUE;
 621              		.loc 2 114 0
 622 0324 0022     		movs	r2, #0
 623 0326 1A71     		strb	r2, [r3, #4]
 624              	.LBE131:
 625              	.LBE130:
 204:firmwares/rotorcraft/main.c ****   }
 626              		.loc 3 204 0
 627 0328 FFF7FEFF 		bl	radio_control_periodic_task
 628              	.LVL70:
 629              	.L35:
 630              	.LBB132:
 631              	.LBB133:
 113:./mcu_periph/sys_time.h ****     sys_time.timer[id].elapsed = FALSE;
 632              		.loc 2 113 0
 633 032c 039B     		ldr	r3, [sp, #12]
 634 032e 1B78     		ldrb	r3, [r3]	@ zero_extendqisi2
 635 0330 1422     		movs	r2, #20
 636 0332 02FB0373 		mla	r3, r2, r3, r7
 637 0336 1033     		adds	r3, r3, #16
 638 0338 1A79     		ldrb	r2, [r3, #4]	@ zero_extendqisi2
 639 033a 72B3     		cbz	r2, .L36
 114:./mcu_periph/sys_time.h ****     return TRUE;
 640              		.loc 2 114 0
 641 033c 0022     		movs	r2, #0
 642 033e 1A71     		strb	r2, [r3, #4]
 643              	.LBE133:
 644              	.LBE132:
 645              	.LBB134:
 646              	.LBB135:
 242:firmwares/rotorcraft/main.c **** }
 243:firmwares/rotorcraft/main.c **** 
 244:firmwares/rotorcraft/main.c **** STATIC_INLINE void telemetry_periodic(void)
 245:firmwares/rotorcraft/main.c **** {
 246:firmwares/rotorcraft/main.c ****   static uint8_t boot = TRUE;
 247:firmwares/rotorcraft/main.c **** 
 248:firmwares/rotorcraft/main.c ****   /* initialisation phase during boot */
 249:firmwares/rotorcraft/main.c ****   if (boot) {
 250:firmwares/rotorcraft/main.c **** #if DOWNLINK
 251:firmwares/rotorcraft/main.c ****     send_autopilot_version(&(DefaultChannel).trans_tx, &(DefaultDevice).device);
 252:firmwares/rotorcraft/main.c **** #endif
 253:firmwares/rotorcraft/main.c ****     boot = FALSE;
 254:firmwares/rotorcraft/main.c ****   }
 255:firmwares/rotorcraft/main.c ****   /* then report periodicly */
 256:firmwares/rotorcraft/main.c ****   else {
 257:firmwares/rotorcraft/main.c **** #if PERIODIC_TELEMETRY
 258:firmwares/rotorcraft/main.c ****     periodic_telemetry_send_Main(&(DefaultChannel).trans_tx, &(DefaultDevice).device);
 259:firmwares/rotorcraft/main.c **** #endif
 260:firmwares/rotorcraft/main.c ****   }
 261:firmwares/rotorcraft/main.c **** }
 262:firmwares/rotorcraft/main.c **** 
 263:firmwares/rotorcraft/main.c **** /** mode to enter when RC is lost while using a mode with RC input (not AP_MODE_NAV) */
 264:firmwares/rotorcraft/main.c **** #ifndef RC_LOST_MODE
 265:firmwares/rotorcraft/main.c **** #define RC_LOST_MODE AP_MODE_FAILSAFE
 266:firmwares/rotorcraft/main.c **** #endif
 267:firmwares/rotorcraft/main.c **** 
 268:firmwares/rotorcraft/main.c **** STATIC_INLINE void failsafe_check(void)
 269:firmwares/rotorcraft/main.c **** {
 270:firmwares/rotorcraft/main.c ****   if (radio_control.status == RC_REALLY_LOST &&
 647              		.loc 3 270 0
 648 0340 7B4B     		ldr	r3, .L773
 649 0342 7C4C     		ldr	r4, .L773+4
 650 0344 1B78     		ldrb	r3, [r3]	@ zero_extendqisi2
 651 0346 022B     		cmp	r3, #2
 652 0348 07D1     		bne	.L37
 271:firmwares/rotorcraft/main.c ****       autopilot_mode != AP_MODE_KILL &&
 653              		.loc 3 271 0
 654 034a 2378     		ldrb	r3, [r4]	@ zero_extendqisi2
 270:firmwares/rotorcraft/main.c ****       autopilot_mode != AP_MODE_KILL &&
 655              		.loc 3 270 0
 656 034c 022B     		cmp	r3, #2
 657 034e 04D9     		bls	.L37
 272:firmwares/rotorcraft/main.c ****       autopilot_mode != AP_MODE_HOME &&
 273:firmwares/rotorcraft/main.c ****       autopilot_mode != AP_MODE_FAILSAFE &&
 658              		.loc 3 273 0
 659 0350 0D2B     		cmp	r3, #13
 660 0352 02D0     		beq	.L37
 274:firmwares/rotorcraft/main.c ****       autopilot_mode != AP_MODE_NAV) {
 275:firmwares/rotorcraft/main.c ****     autopilot_set_mode(RC_LOST_MODE);
 661              		.loc 3 275 0
 662 0354 0120     		movs	r0, #1
 663 0356 FFF7FEFF 		bl	autopilot_set_mode
 664              	.LVL71:
 665              	.L37:
 276:firmwares/rotorcraft/main.c ****   }
 277:firmwares/rotorcraft/main.c **** 
 278:firmwares/rotorcraft/main.c **** #if FAILSAFE_ON_BAT_CRITICAL
 279:firmwares/rotorcraft/main.c ****   if (autopilot_mode != AP_MODE_KILL &&
 280:firmwares/rotorcraft/main.c ****       electrical.bat_critical) {
 281:firmwares/rotorcraft/main.c ****     autopilot_set_mode(AP_MODE_FAILSAFE);
 282:firmwares/rotorcraft/main.c ****   }
 283:firmwares/rotorcraft/main.c **** #endif
 284:firmwares/rotorcraft/main.c **** 
 285:firmwares/rotorcraft/main.c **** #if USE_GPS
 286:firmwares/rotorcraft/main.c ****   gps_periodic_check();
 666              		.loc 3 286 0
 667 035a FFF7FEFF 		bl	gps_periodic_check
 668              	.LVL72:
 287:firmwares/rotorcraft/main.c ****   if (autopilot_mode == AP_MODE_NAV &&
 669              		.loc 3 287 0
 670 035e 2378     		ldrb	r3, [r4]	@ zero_extendqisi2
 671 0360 DFF81CA2 		ldr	r10, .L773+80
 672 0364 0D2B     		cmp	r3, #13
 673 0366 08D1     		bne	.L38
 674 0368 9AF80030 		ldrb	r3, [r10]	@ zero_extendqisi2
 675 036c 2BB1     		cbz	r3, .L38
 676              	.LBB136:
 677              	.LBB137:
 678              		.file 5 "./subsystems/gps.h"
   1:./subsystems/gps.h **** /*
   2:./subsystems/gps.h ****  * Copyright (C) 2003-2011 The Paparazzi Team
   3:./subsystems/gps.h ****  *
   4:./subsystems/gps.h ****  * This file is part of paparazzi.
   5:./subsystems/gps.h ****  *
   6:./subsystems/gps.h ****  * paparazzi is free software; you can redistribute it and/or modify
   7:./subsystems/gps.h ****  * it under the terms of the GNU General Public License as published by
   8:./subsystems/gps.h ****  * the Free Software Foundation; either version 2, or (at your option)
   9:./subsystems/gps.h ****  * any later version.
  10:./subsystems/gps.h ****  *
  11:./subsystems/gps.h ****  * paparazzi is distributed in the hope that it will be useful,
  12:./subsystems/gps.h ****  * but WITHOUT ANY WARRANTY; without even the implied warranty of
  13:./subsystems/gps.h ****  * MERCHANTABILITY or FITNESS FOR A PARTICULAR PURPOSE.  See the
  14:./subsystems/gps.h ****  * GNU General Public License for more details.
  15:./subsystems/gps.h ****  *
  16:./subsystems/gps.h ****  * You should have received a copy of the GNU General Public License
  17:./subsystems/gps.h ****  * along with paparazzi; see the file COPYING.  If not, write to
  18:./subsystems/gps.h ****  * the Free Software Foundation, 59 Temple Place - Suite 330,
  19:./subsystems/gps.h ****  * Boston, MA 02111-1307, USA.
  20:./subsystems/gps.h ****  */
  21:./subsystems/gps.h **** 
  22:./subsystems/gps.h **** /** @file gps.h
  23:./subsystems/gps.h ****  *  @brief Device independent GPS code (interface)
  24:./subsystems/gps.h ****  *
  25:./subsystems/gps.h ****  */
  26:./subsystems/gps.h **** 
  27:./subsystems/gps.h **** #ifndef GPS_H
  28:./subsystems/gps.h **** #define GPS_H
  29:./subsystems/gps.h **** 
  30:./subsystems/gps.h **** 
  31:./subsystems/gps.h **** #include "std.h"
  32:./subsystems/gps.h **** #include "math/pprz_geodetic_int.h"
  33:./subsystems/gps.h **** 
  34:./subsystems/gps.h **** #include "mcu_periph/sys_time.h"
  35:./subsystems/gps.h **** 
  36:./subsystems/gps.h **** /* GPS model specific implementation or sim */
  37:./subsystems/gps.h **** #ifdef GPS_TYPE_H
  38:./subsystems/gps.h **** #include GPS_TYPE_H
  39:./subsystems/gps.h **** #endif
  40:./subsystems/gps.h **** 
  41:./subsystems/gps.h **** #define GPS_FIX_NONE 0x00
  42:./subsystems/gps.h **** #define GPS_FIX_2D   0x02
  43:./subsystems/gps.h **** #define GPS_FIX_3D   0x03
  44:./subsystems/gps.h **** 
  45:./subsystems/gps.h **** #define GpsFixValid() (gps.fix == GPS_FIX_3D)
  46:./subsystems/gps.h **** 
  47:./subsystems/gps.h **** 
  48:./subsystems/gps.h **** #ifndef GPS_NB_CHANNELS
  49:./subsystems/gps.h **** #define GPS_NB_CHANNELS 1
  50:./subsystems/gps.h **** #endif
  51:./subsystems/gps.h **** 
  52:./subsystems/gps.h **** /** data structure for Space Vehicle Information of a single satellite */
  53:./subsystems/gps.h **** struct SVinfo {
  54:./subsystems/gps.h ****   uint8_t svid;  ///< Satellite ID
  55:./subsystems/gps.h ****   uint8_t flags; ///< bitfield with GPS receiver specific flags
  56:./subsystems/gps.h ****   uint8_t qi;    ///< quality bitfield (GPS receiver specific)
  57:./subsystems/gps.h ****   uint8_t cno;   ///< Carrier to Noise Ratio (Signal Strength) in dbHz
  58:./subsystems/gps.h ****   int8_t elev;   ///< elevation in deg
  59:./subsystems/gps.h ****   int16_t azim;  ///< azimuth in deg
  60:./subsystems/gps.h **** };
  61:./subsystems/gps.h **** 
  62:./subsystems/gps.h **** /** data structure for GPS information */
  63:./subsystems/gps.h **** struct GpsState {
  64:./subsystems/gps.h ****   struct EcefCoor_i ecef_pos;    ///< position in ECEF in cm
  65:./subsystems/gps.h ****   struct LlaCoor_i lla_pos;      ///< position in LLA (lat,lon: deg*1e7; alt: mm over ellipsoid)
  66:./subsystems/gps.h ****   struct UtmCoor_i utm_pos;      ///< position in UTM (north,east: cm; alt: mm over ellipsoid)
  67:./subsystems/gps.h ****   int32_t hmsl;                  ///< height above mean sea level in mm
  68:./subsystems/gps.h ****   struct EcefCoor_i ecef_vel;    ///< speed ECEF in cm/s
  69:./subsystems/gps.h ****   struct NedCoor_i ned_vel;      ///< speed NED in cm/s
  70:./subsystems/gps.h ****   uint16_t gspeed;               ///< norm of 2d ground speed in cm/s
  71:./subsystems/gps.h ****   uint16_t speed_3d;             ///< norm of 3d speed in cm/s
  72:./subsystems/gps.h ****   int32_t course;                ///< GPS course over ground in rad*1e7, [0, 2*Pi]*1e7 (CW/north)
  73:./subsystems/gps.h ****   uint32_t pacc;                 ///< position accuracy in cm
  74:./subsystems/gps.h ****   uint32_t sacc;                 ///< speed accuracy in cm/s
  75:./subsystems/gps.h ****   uint32_t cacc;                 ///< course accuracy in rad*1e7
  76:./subsystems/gps.h ****   uint16_t pdop;                 ///< position dilution of precision scaled by 100
  77:./subsystems/gps.h ****   uint8_t num_sv;                ///< number of sat in fix
  78:./subsystems/gps.h ****   uint8_t fix;                   ///< status of fix
  79:./subsystems/gps.h ****   uint16_t week;                 ///< GPS week
  80:./subsystems/gps.h ****   uint32_t tow;                  ///< GPS time of week in ms
  81:./subsystems/gps.h **** 
  82:./subsystems/gps.h ****   uint8_t nb_channels;           ///< Number of scanned satellites
  83:./subsystems/gps.h ****   struct SVinfo svinfos[GPS_NB_CHANNELS]; ///< holds information from the Space Vehicles (Satellite
  84:./subsystems/gps.h **** 
  85:./subsystems/gps.h ****   uint32_t last_3dfix_ticks;     ///< cpu time ticks at last valid 3D fix
  86:./subsystems/gps.h ****   uint32_t last_3dfix_time;      ///< cpu time in sec at last valid 3D fix
  87:./subsystems/gps.h ****   uint32_t last_msg_ticks;       ///< cpu time ticks at last received GPS message
  88:./subsystems/gps.h ****   uint32_t last_msg_time;        ///< cpu time in sec at last received GPS message
  89:./subsystems/gps.h ****   uint16_t reset;                ///< hotstart, warmstart, coldstart
  90:./subsystems/gps.h **** };
  91:./subsystems/gps.h **** 
  92:./subsystems/gps.h **** /** data structure for GPS time sync */
  93:./subsystems/gps.h **** struct GpsTimeSync {
  94:./subsystems/gps.h ****   uint32_t t0_tow;      ///< GPS time of week in ms from last message
  95:./subsystems/gps.h ****   int32_t t0_tow_frac;  ///< fractional ns remainder of tow [ms], range -500000 .. 500000
  96:./subsystems/gps.h ****   uint32_t t0_ticks;    ///< hw clock ticks when GPS message is received
  97:./subsystems/gps.h **** };
  98:./subsystems/gps.h **** 
  99:./subsystems/gps.h **** /** global GPS state */
 100:./subsystems/gps.h **** extern struct GpsState gps;
 101:./subsystems/gps.h **** 
 102:./subsystems/gps.h **** /** initialize the global GPS state */
 103:./subsystems/gps.h **** extern void gps_init(void);
 104:./subsystems/gps.h **** 
 105:./subsystems/gps.h **** /* GPS model specific init implementation */
 106:./subsystems/gps.h **** extern void gps_impl_init(void);
 107:./subsystems/gps.h **** 
 108:./subsystems/gps.h **** 
 109:./subsystems/gps.h **** /** GPS timeout in seconds */
 110:./subsystems/gps.h **** #ifndef GPS_TIMEOUT
 111:./subsystems/gps.h **** #define GPS_TIMEOUT 2
 112:./subsystems/gps.h **** #endif
 113:./subsystems/gps.h **** 
 114:./subsystems/gps.h **** static inline bool_t GpsIsLost(void)
 115:./subsystems/gps.h **** {
 116:./subsystems/gps.h ****   if (gps.fix == GPS_FIX_3D) {
 679              		.loc 5 116 0
 680 036e 724B     		ldr	r3, .L773+8
 681 0370 93F85B30 		ldrb	r3, [r3, #91]	@ zero_extendqisi2
 682 0374 032B     		cmp	r3, #3
 683 0376 41F04E81 		bne	.L39
 684              	.L38:
 685              	.LBE137:
 686              	.LBE136:
 288:firmwares/rotorcraft/main.c ****       autopilot_motors_on &&
 289:firmwares/rotorcraft/main.c **** #if NO_GPS_LOST_WITH_RC_VALID
 290:firmwares/rotorcraft/main.c ****       radio_control.status != RC_OK &&
 291:firmwares/rotorcraft/main.c **** #endif
 292:firmwares/rotorcraft/main.c ****       GpsIsLost()) {
 293:firmwares/rotorcraft/main.c ****     autopilot_set_mode(AP_MODE_FAILSAFE);
 294:firmwares/rotorcraft/main.c ****   }
 295:firmwares/rotorcraft/main.c **** 
 296:firmwares/rotorcraft/main.c ****   if (autopilot_mode == AP_MODE_HOME &&
 687              		.loc 3 296 0
 688 037a 2378     		ldrb	r3, [r4]	@ zero_extendqisi2
 689 037c 022B     		cmp	r3, #2
 690 037e 08D1     		bne	.L40
 691 0380 9AF80030 		ldrb	r3, [r10]	@ zero_extendqisi2
 692 0384 2BB1     		cbz	r3, .L40
 693              	.LBB138:
 694              	.LBB139:
 695              		.loc 5 116 0
 696 0386 6C4B     		ldr	r3, .L773+8
 697 0388 93F85B30 		ldrb	r3, [r3, #91]	@ zero_extendqisi2
 698 038c 032B     		cmp	r3, #3
 699 038e 41F04781 		bne	.L41
 700              	.L40:
 701              	.LBE139:
 702              	.LBE138:
 297:firmwares/rotorcraft/main.c ****       autopilot_motors_on && GpsIsLost()) {
 298:firmwares/rotorcraft/main.c ****     autopilot_set_mode(AP_MODE_FAILSAFE);
 299:firmwares/rotorcraft/main.c ****   }
 300:firmwares/rotorcraft/main.c **** #endif
 301:firmwares/rotorcraft/main.c **** 
 302:firmwares/rotorcraft/main.c ****   autopilot_check_in_flight(autopilot_motors_on);
 703              		.loc 3 302 0
 704 0392 9AF80000 		ldrb	r0, [r10]	@ zero_extendqisi2
 705 0396 FFF7FEFF 		bl	autopilot_check_in_flight
 706              	.LVL73:
 707              	.L36:
 708              	.LBE135:
 709              	.LBE134:
 710              	.LBB141:
 711              	.LBB142:
 113:./mcu_periph/sys_time.h ****     sys_time.timer[id].elapsed = FALSE;
 712              		.loc 2 113 0
 713 039a 049B     		ldr	r3, [sp, #16]
 714 039c 1B78     		ldrb	r3, [r3]	@ zero_extendqisi2
 715 039e 1422     		movs	r2, #20
 716 03a0 02FB0373 		mla	r3, r2, r3, r7
 717 03a4 1033     		adds	r3, r3, #16
 718 03a6 1A79     		ldrb	r2, [r3, #4]	@ zero_extendqisi2
 719 03a8 1AB1     		cbz	r2, .L42
 114:./mcu_periph/sys_time.h ****     return TRUE;
 720              		.loc 2 114 0
 721 03aa 0022     		movs	r2, #0
 722 03ac 1A71     		strb	r2, [r3, #4]
 723              	.LBE142:
 724              	.LBE141:
 210:firmwares/rotorcraft/main.c ****   }
 725              		.loc 3 210 0
 726 03ae FFF7FEFF 		bl	electrical_periodic
 727              	.LVL74:
 728              	.L42:
 729              	.LBB143:
 730              	.LBB144:
 113:./mcu_periph/sys_time.h ****     sys_time.timer[id].elapsed = FALSE;
 731              		.loc 2 113 0
 732 03b2 98F80030 		ldrb	r3, [r8]	@ zero_extendqisi2
 733 03b6 1422     		movs	r2, #20
 734 03b8 02FB0373 		mla	r3, r2, r3, r7
 735 03bc 1033     		adds	r3, r3, #16
 736 03be 1A79     		ldrb	r2, [r3, #4]	@ zero_extendqisi2
 737 03c0 002A     		cmp	r2, #0
 738 03c2 00F09487 		beq	.L44
 739              	.LBE144:
 740              	.LBE143:
 741              	.LBB146:
 742              	.LBB147:
 249:firmwares/rotorcraft/main.c **** #if DOWNLINK
 743              		.loc 3 249 0
 744 03c6 5D4C     		ldr	r4, .L773+12
 745              	.LBE147:
 746              	.LBE146:
 747              	.LBB163:
 748              	.LBB145:
 114:./mcu_periph/sys_time.h ****     return TRUE;
 749              		.loc 2 114 0
 750 03c8 4FF0000A 		mov	r10, #0
 751 03cc 83F804A0 		strb	r10, [r3, #4]
 752              	.LBE145:
 753              	.LBE163:
 754              	.LBB164:
 755              	.LBB162:
 249:firmwares/rotorcraft/main.c **** #if DOWNLINK
 756              		.loc 3 249 0
 757 03d0 2378     		ldrb	r3, [r4]	@ zero_extendqisi2
 758 03d2 3BB1     		cbz	r3, .L45
 251:firmwares/rotorcraft/main.c **** #endif
 759              		.loc 3 251 0
 760 03d4 5A48     		ldr	r0, .L773+16
 761 03d6 5B49     		ldr	r1, .L773+20
 762 03d8 FFF7FEFF 		bl	send_autopilot_version
 763              	.LVL75:
 253:firmwares/rotorcraft/main.c ****   }
 764              		.loc 3 253 0
 765 03dc 84F800A0 		strb	r10, [r4]
 766 03e0 00F085BF 		b	.L44
 767              	.LVL76:
 768              	.L45:
 769              	.LBB148:
 770              	.LBB149:
 771              		.file 6 "/home/adamczer/paparazzi/var/aircrafts/Quad_LisaMX/ap/generated/periodic_telemetry.h"
   1:/home/adamczer/paparazzi/var/aircrafts/Quad_LisaMX/ap/generated/periodic_telemetry.h **** /* This file has been generated by gen_periodic from /home/adamczer/paparazzi/conf/messages.xml and
   2:/home/adamczer/paparazzi/var/aircrafts/Quad_LisaMX/ap/generated/periodic_telemetry.h **** /* Please DO NOT EDIT */
   3:/home/adamczer/paparazzi/var/aircrafts/Quad_LisaMX/ap/generated/periodic_telemetry.h **** 
   4:/home/adamczer/paparazzi/var/aircrafts/Quad_LisaMX/ap/generated/periodic_telemetry.h **** #ifndef _VAR_PERIODIC_H_
   5:/home/adamczer/paparazzi/var/aircrafts/Quad_LisaMX/ap/generated/periodic_telemetry.h **** #define _VAR_PERIODIC_H_
   6:/home/adamczer/paparazzi/var/aircrafts/Quad_LisaMX/ap/generated/periodic_telemetry.h **** 
   7:/home/adamczer/paparazzi/var/aircrafts/Quad_LisaMX/ap/generated/periodic_telemetry.h **** #include "std.h"
   8:/home/adamczer/paparazzi/var/aircrafts/Quad_LisaMX/ap/generated/periodic_telemetry.h **** #include "generated/airframe.h"
   9:/home/adamczer/paparazzi/var/aircrafts/Quad_LisaMX/ap/generated/periodic_telemetry.h **** #include "subsystems/datalink/telemetry_common.h"
  10:/home/adamczer/paparazzi/var/aircrafts/Quad_LisaMX/ap/generated/periodic_telemetry.h **** 
  11:/home/adamczer/paparazzi/var/aircrafts/Quad_LisaMX/ap/generated/periodic_telemetry.h **** #define TELEMETRY_FREQUENCY 512
  12:/home/adamczer/paparazzi/var/aircrafts/Quad_LisaMX/ap/generated/periodic_telemetry.h **** 
  13:/home/adamczer/paparazzi/var/aircrafts/Quad_LisaMX/ap/generated/periodic_telemetry.h **** 
  14:/home/adamczer/paparazzi/var/aircrafts/Quad_LisaMX/ap/generated/periodic_telemetry.h **** /* Periodic telemetry: Main process */
  15:/home/adamczer/paparazzi/var/aircrafts/Quad_LisaMX/ap/generated/periodic_telemetry.h **** #define TELEMETRY_PROCESS_Main 0
  16:/home/adamczer/paparazzi/var/aircrafts/Quad_LisaMX/ap/generated/periodic_telemetry.h **** #define TELEMETRY_MODE_Main_default 0
  17:/home/adamczer/paparazzi/var/aircrafts/Quad_LisaMX/ap/generated/periodic_telemetry.h **** #define PERIOD_AUTOPILOT_VERSION_Main_0 (11.1)
  18:/home/adamczer/paparazzi/var/aircrafts/Quad_LisaMX/ap/generated/periodic_telemetry.h **** #define PERIOD_DL_VALUE_Main_0 (1.1)
  19:/home/adamczer/paparazzi/var/aircrafts/Quad_LisaMX/ap/generated/periodic_telemetry.h **** #define PERIOD_ROTORCRAFT_STATUS_Main_0 (1.2)
  20:/home/adamczer/paparazzi/var/aircrafts/Quad_LisaMX/ap/generated/periodic_telemetry.h **** #define PERIOD_ROTORCRAFT_FP_Main_0 (0.25)
  21:/home/adamczer/paparazzi/var/aircrafts/Quad_LisaMX/ap/generated/periodic_telemetry.h **** #define PERIOD_ALIVE_Main_0 (2.1)
  22:/home/adamczer/paparazzi/var/aircrafts/Quad_LisaMX/ap/generated/periodic_telemetry.h **** #define PERIOD_INS_REF_Main_0 (5.1)
  23:/home/adamczer/paparazzi/var/aircrafts/Quad_LisaMX/ap/generated/periodic_telemetry.h **** #define PERIOD_ROTORCRAFT_NAV_STATUS_Main_0 (1.6)
  24:/home/adamczer/paparazzi/var/aircrafts/Quad_LisaMX/ap/generated/periodic_telemetry.h **** #define PERIOD_WP_MOVED_Main_0 (1.3)
  25:/home/adamczer/paparazzi/var/aircrafts/Quad_LisaMX/ap/generated/periodic_telemetry.h **** #define PERIOD_ROTORCRAFT_CAM_Main_0 (1.)
  26:/home/adamczer/paparazzi/var/aircrafts/Quad_LisaMX/ap/generated/periodic_telemetry.h **** #define PERIOD_GPS_INT_Main_0 (.25)
  27:/home/adamczer/paparazzi/var/aircrafts/Quad_LisaMX/ap/generated/periodic_telemetry.h **** #define PERIOD_INS_Main_0 (.25)
  28:/home/adamczer/paparazzi/var/aircrafts/Quad_LisaMX/ap/generated/periodic_telemetry.h **** #define PERIOD_I2C_ERRORS_Main_0 (4.1)
  29:/home/adamczer/paparazzi/var/aircrafts/Quad_LisaMX/ap/generated/periodic_telemetry.h **** #define PERIOD_UART_ERRORS_Main_0 (3.1)
  30:/home/adamczer/paparazzi/var/aircrafts/Quad_LisaMX/ap/generated/periodic_telemetry.h **** #define PERIOD_SUPERBITRF_Main_0 (3)
  31:/home/adamczer/paparazzi/var/aircrafts/Quad_LisaMX/ap/generated/periodic_telemetry.h **** #define PERIOD_ENERGY_Main_0 (2.5)
  32:/home/adamczer/paparazzi/var/aircrafts/Quad_LisaMX/ap/generated/periodic_telemetry.h **** #define PERIOD_DATALINK_REPORT_Main_0 (5.1)
  33:/home/adamczer/paparazzi/var/aircrafts/Quad_LisaMX/ap/generated/periodic_telemetry.h **** #define PERIOD_STATE_FILTER_STATUS_Main_0 (3.2)
  34:/home/adamczer/paparazzi/var/aircrafts/Quad_LisaMX/ap/generated/periodic_telemetry.h **** #define PERIOD_AIR_DATA_Main_0 (1.3)
  35:/home/adamczer/paparazzi/var/aircrafts/Quad_LisaMX/ap/generated/periodic_telemetry.h **** #define TELEMETRY_MODE_Main_ppm 1
  36:/home/adamczer/paparazzi/var/aircrafts/Quad_LisaMX/ap/generated/periodic_telemetry.h **** #define PERIOD_ROTORCRAFT_CMD_Main_1 (.05)
  37:/home/adamczer/paparazzi/var/aircrafts/Quad_LisaMX/ap/generated/periodic_telemetry.h **** #define PERIOD_PPM_Main_1 (0.5)
  38:/home/adamczer/paparazzi/var/aircrafts/Quad_LisaMX/ap/generated/periodic_telemetry.h **** #define PERIOD_RC_Main_1 (0.5)
  39:/home/adamczer/paparazzi/var/aircrafts/Quad_LisaMX/ap/generated/periodic_telemetry.h **** #define PERIOD_ROTORCRAFT_RADIO_CONTROL_Main_1 (0.5)
  40:/home/adamczer/paparazzi/var/aircrafts/Quad_LisaMX/ap/generated/periodic_telemetry.h **** #define PERIOD_ROTORCRAFT_STATUS_Main_1 (1)
  41:/home/adamczer/paparazzi/var/aircrafts/Quad_LisaMX/ap/generated/periodic_telemetry.h **** #define PERIOD_ACTUATORS_BEBOP_Main_1 (0.2)
  42:/home/adamczer/paparazzi/var/aircrafts/Quad_LisaMX/ap/generated/periodic_telemetry.h **** #define TELEMETRY_MODE_Main_raw_sensors 2
  43:/home/adamczer/paparazzi/var/aircrafts/Quad_LisaMX/ap/generated/periodic_telemetry.h **** #define PERIOD_ROTORCRAFT_STATUS_Main_2 (1.2)
  44:/home/adamczer/paparazzi/var/aircrafts/Quad_LisaMX/ap/generated/periodic_telemetry.h **** #define PERIOD_DL_VALUE_Main_2 (0.5)
  45:/home/adamczer/paparazzi/var/aircrafts/Quad_LisaMX/ap/generated/periodic_telemetry.h **** #define PERIOD_ALIVE_Main_2 (2.1)
  46:/home/adamczer/paparazzi/var/aircrafts/Quad_LisaMX/ap/generated/periodic_telemetry.h **** #define PERIOD_IMU_ACCEL_RAW_Main_2 (.05)
  47:/home/adamczer/paparazzi/var/aircrafts/Quad_LisaMX/ap/generated/periodic_telemetry.h **** #define PERIOD_IMU_GYRO_RAW_Main_2 (.05)
  48:/home/adamczer/paparazzi/var/aircrafts/Quad_LisaMX/ap/generated/periodic_telemetry.h **** #define PERIOD_IMU_MAG_RAW_Main_2 (.05)
  49:/home/adamczer/paparazzi/var/aircrafts/Quad_LisaMX/ap/generated/periodic_telemetry.h **** #define PERIOD_BARO_RAW_Main_2 (.1)
  50:/home/adamczer/paparazzi/var/aircrafts/Quad_LisaMX/ap/generated/periodic_telemetry.h **** #define TELEMETRY_MODE_Main_scaled_sensors 3
  51:/home/adamczer/paparazzi/var/aircrafts/Quad_LisaMX/ap/generated/periodic_telemetry.h **** #define PERIOD_ROTORCRAFT_STATUS_Main_3 (1.2)
  52:/home/adamczer/paparazzi/var/aircrafts/Quad_LisaMX/ap/generated/periodic_telemetry.h **** #define PERIOD_DL_VALUE_Main_3 (0.5)
  53:/home/adamczer/paparazzi/var/aircrafts/Quad_LisaMX/ap/generated/periodic_telemetry.h **** #define PERIOD_ALIVE_Main_3 (2.1)
  54:/home/adamczer/paparazzi/var/aircrafts/Quad_LisaMX/ap/generated/periodic_telemetry.h **** #define PERIOD_IMU_GYRO_SCALED_Main_3 (.075)
  55:/home/adamczer/paparazzi/var/aircrafts/Quad_LisaMX/ap/generated/periodic_telemetry.h **** #define PERIOD_IMU_ACCEL_SCALED_Main_3 (.075)
  56:/home/adamczer/paparazzi/var/aircrafts/Quad_LisaMX/ap/generated/periodic_telemetry.h **** #define PERIOD_IMU_MAG_SCALED_Main_3 (.1)
  57:/home/adamczer/paparazzi/var/aircrafts/Quad_LisaMX/ap/generated/periodic_telemetry.h **** #define TELEMETRY_MODE_Main_ahrs 4
  58:/home/adamczer/paparazzi/var/aircrafts/Quad_LisaMX/ap/generated/periodic_telemetry.h **** #define PERIOD_ROTORCRAFT_STATUS_Main_4 (1.2)
  59:/home/adamczer/paparazzi/var/aircrafts/Quad_LisaMX/ap/generated/periodic_telemetry.h **** #define PERIOD_DL_VALUE_Main_4 (0.5)
  60:/home/adamczer/paparazzi/var/aircrafts/Quad_LisaMX/ap/generated/periodic_telemetry.h **** #define PERIOD_ALIVE_Main_4 (2.1)
  61:/home/adamczer/paparazzi/var/aircrafts/Quad_LisaMX/ap/generated/periodic_telemetry.h **** #define PERIOD_FILTER_ALIGNER_Main_4 (2.2)
  62:/home/adamczer/paparazzi/var/aircrafts/Quad_LisaMX/ap/generated/periodic_telemetry.h **** #define PERIOD_FILTER_Main_4 (.5)
  63:/home/adamczer/paparazzi/var/aircrafts/Quad_LisaMX/ap/generated/periodic_telemetry.h **** #define PERIOD_GEO_MAG_Main_4 (5.)
  64:/home/adamczer/paparazzi/var/aircrafts/Quad_LisaMX/ap/generated/periodic_telemetry.h **** #define PERIOD_AHRS_GYRO_BIAS_INT_Main_4 (0.08)
  65:/home/adamczer/paparazzi/var/aircrafts/Quad_LisaMX/ap/generated/periodic_telemetry.h **** #define PERIOD_AHRS_QUAT_INT_Main_4 (.25)
  66:/home/adamczer/paparazzi/var/aircrafts/Quad_LisaMX/ap/generated/periodic_telemetry.h **** #define PERIOD_AHRS_EULER_INT_Main_4 (.1)
  67:/home/adamczer/paparazzi/var/aircrafts/Quad_LisaMX/ap/generated/periodic_telemetry.h **** #define TELEMETRY_MODE_Main_rate_loop 5
  68:/home/adamczer/paparazzi/var/aircrafts/Quad_LisaMX/ap/generated/periodic_telemetry.h **** #define PERIOD_ROTORCRAFT_STATUS_Main_5 (1.2)
  69:/home/adamczer/paparazzi/var/aircrafts/Quad_LisaMX/ap/generated/periodic_telemetry.h **** #define PERIOD_DL_VALUE_Main_5 (0.5)
  70:/home/adamczer/paparazzi/var/aircrafts/Quad_LisaMX/ap/generated/periodic_telemetry.h **** #define PERIOD_ALIVE_Main_5 (2.1)
  71:/home/adamczer/paparazzi/var/aircrafts/Quad_LisaMX/ap/generated/periodic_telemetry.h **** #define PERIOD_RATE_LOOP_Main_5 (.02)
  72:/home/adamczer/paparazzi/var/aircrafts/Quad_LisaMX/ap/generated/periodic_telemetry.h **** #define TELEMETRY_MODE_Main_attitude_setpoint_viz 6
  73:/home/adamczer/paparazzi/var/aircrafts/Quad_LisaMX/ap/generated/periodic_telemetry.h **** #define PERIOD_ROTORCRAFT_STATUS_Main_6 (1.2)
  74:/home/adamczer/paparazzi/var/aircrafts/Quad_LisaMX/ap/generated/periodic_telemetry.h **** #define PERIOD_DL_VALUE_Main_6 (0.5)
  75:/home/adamczer/paparazzi/var/aircrafts/Quad_LisaMX/ap/generated/periodic_telemetry.h **** #define PERIOD_ALIVE_Main_6 (0.9)
  76:/home/adamczer/paparazzi/var/aircrafts/Quad_LisaMX/ap/generated/periodic_telemetry.h **** #define PERIOD_ROTORCRAFT_RADIO_CONTROL_Main_6 (0.1)
  77:/home/adamczer/paparazzi/var/aircrafts/Quad_LisaMX/ap/generated/periodic_telemetry.h **** #define PERIOD_AHRS_REF_QUAT_Main_6 (0.05)
  78:/home/adamczer/paparazzi/var/aircrafts/Quad_LisaMX/ap/generated/periodic_telemetry.h **** #define TELEMETRY_MODE_Main_attitude_loop 7
  79:/home/adamczer/paparazzi/var/aircrafts/Quad_LisaMX/ap/generated/periodic_telemetry.h **** #define PERIOD_ROTORCRAFT_STATUS_Main_7 (1.2)
  80:/home/adamczer/paparazzi/var/aircrafts/Quad_LisaMX/ap/generated/periodic_telemetry.h **** #define PERIOD_DL_VALUE_Main_7 (0.5)
  81:/home/adamczer/paparazzi/var/aircrafts/Quad_LisaMX/ap/generated/periodic_telemetry.h **** #define PERIOD_ALIVE_Main_7 (0.9)
  82:/home/adamczer/paparazzi/var/aircrafts/Quad_LisaMX/ap/generated/periodic_telemetry.h **** #define PERIOD_STAB_ATTITUDE_Main_7 (.03)
  83:/home/adamczer/paparazzi/var/aircrafts/Quad_LisaMX/ap/generated/periodic_telemetry.h **** #define PERIOD_STAB_ATTITUDE_REF_Main_7 (.03)
  84:/home/adamczer/paparazzi/var/aircrafts/Quad_LisaMX/ap/generated/periodic_telemetry.h **** #define TELEMETRY_MODE_Main_vert_loop 8
  85:/home/adamczer/paparazzi/var/aircrafts/Quad_LisaMX/ap/generated/periodic_telemetry.h **** #define PERIOD_ROTORCRAFT_STATUS_Main_8 (1.2)
  86:/home/adamczer/paparazzi/var/aircrafts/Quad_LisaMX/ap/generated/periodic_telemetry.h **** #define PERIOD_DL_VALUE_Main_8 (0.5)
  87:/home/adamczer/paparazzi/var/aircrafts/Quad_LisaMX/ap/generated/periodic_telemetry.h **** #define PERIOD_ALIVE_Main_8 (0.9)
  88:/home/adamczer/paparazzi/var/aircrafts/Quad_LisaMX/ap/generated/periodic_telemetry.h **** #define PERIOD_VFF_Main_8 (.05)
  89:/home/adamczer/paparazzi/var/aircrafts/Quad_LisaMX/ap/generated/periodic_telemetry.h **** #define PERIOD_VFF_EXTENDED_Main_8 (.05)
  90:/home/adamczer/paparazzi/var/aircrafts/Quad_LisaMX/ap/generated/periodic_telemetry.h **** #define PERIOD_VERT_LOOP_Main_8 (.05)
  91:/home/adamczer/paparazzi/var/aircrafts/Quad_LisaMX/ap/generated/periodic_telemetry.h **** #define PERIOD_INS_Main_8 (.05)
  92:/home/adamczer/paparazzi/var/aircrafts/Quad_LisaMX/ap/generated/periodic_telemetry.h **** #define PERIOD_INS_REF_Main_8 (5.1)
  93:/home/adamczer/paparazzi/var/aircrafts/Quad_LisaMX/ap/generated/periodic_telemetry.h **** #define TELEMETRY_MODE_Main_h_loop 9
  94:/home/adamczer/paparazzi/var/aircrafts/Quad_LisaMX/ap/generated/periodic_telemetry.h **** #define PERIOD_ALIVE_Main_9 (0.9)
  95:/home/adamczer/paparazzi/var/aircrafts/Quad_LisaMX/ap/generated/periodic_telemetry.h **** #define PERIOD_HOVER_LOOP_Main_9 (0.062)
  96:/home/adamczer/paparazzi/var/aircrafts/Quad_LisaMX/ap/generated/periodic_telemetry.h **** #define PERIOD_GUIDANCE_H_REF_Main_9 (0.062)
  97:/home/adamczer/paparazzi/var/aircrafts/Quad_LisaMX/ap/generated/periodic_telemetry.h **** #define PERIOD_STAB_ATTITUDE_Main_9 (0.4)
  98:/home/adamczer/paparazzi/var/aircrafts/Quad_LisaMX/ap/generated/periodic_telemetry.h **** #define PERIOD_ROTORCRAFT_FP_Main_9 (0.8)
  99:/home/adamczer/paparazzi/var/aircrafts/Quad_LisaMX/ap/generated/periodic_telemetry.h **** #define PERIOD_ROTORCRAFT_STATUS_Main_9 (1.2)
 100:/home/adamczer/paparazzi/var/aircrafts/Quad_LisaMX/ap/generated/periodic_telemetry.h **** #define PERIOD_ROTORCRAFT_NAV_STATUS_Main_9 (1.6)
 101:/home/adamczer/paparazzi/var/aircrafts/Quad_LisaMX/ap/generated/periodic_telemetry.h **** #define PERIOD_INS_REF_Main_9 (5.1)
 102:/home/adamczer/paparazzi/var/aircrafts/Quad_LisaMX/ap/generated/periodic_telemetry.h **** #define PERIOD_HFF_Main_9 (.05)
 103:/home/adamczer/paparazzi/var/aircrafts/Quad_LisaMX/ap/generated/periodic_telemetry.h **** #define PERIOD_HFF_GPS_Main_9 (.03)
 104:/home/adamczer/paparazzi/var/aircrafts/Quad_LisaMX/ap/generated/periodic_telemetry.h **** #define PERIOD_HFF_DBG_Main_9 (.2)
 105:/home/adamczer/paparazzi/var/aircrafts/Quad_LisaMX/ap/generated/periodic_telemetry.h **** #define TELEMETRY_MODE_Main_aligner 10
 106:/home/adamczer/paparazzi/var/aircrafts/Quad_LisaMX/ap/generated/periodic_telemetry.h **** #define PERIOD_ALIVE_Main_10 (0.9)
 107:/home/adamczer/paparazzi/var/aircrafts/Quad_LisaMX/ap/generated/periodic_telemetry.h **** #define PERIOD_FILTER_ALIGNER_Main_10 (0.02)
 108:/home/adamczer/paparazzi/var/aircrafts/Quad_LisaMX/ap/generated/periodic_telemetry.h **** #define TELEMETRY_MODE_Main_tune_hover 11
 109:/home/adamczer/paparazzi/var/aircrafts/Quad_LisaMX/ap/generated/periodic_telemetry.h **** #define PERIOD_DL_VALUE_Main_11 (1.1)
 110:/home/adamczer/paparazzi/var/aircrafts/Quad_LisaMX/ap/generated/periodic_telemetry.h **** #define PERIOD_ROTORCRAFT_STATUS_Main_11 (1.2)
 111:/home/adamczer/paparazzi/var/aircrafts/Quad_LisaMX/ap/generated/periodic_telemetry.h **** #define PERIOD_ALIVE_Main_11 (2.1)
 112:/home/adamczer/paparazzi/var/aircrafts/Quad_LisaMX/ap/generated/periodic_telemetry.h **** #define PERIOD_GUIDANCE_H_INT_Main_11 (0.05)
 113:/home/adamczer/paparazzi/var/aircrafts/Quad_LisaMX/ap/generated/periodic_telemetry.h **** #define PERIOD_ROTORCRAFT_TUNE_HOVER_Main_11 (.1)
 114:/home/adamczer/paparazzi/var/aircrafts/Quad_LisaMX/ap/generated/periodic_telemetry.h **** #define PERIOD_INS_REF_Main_11 (5.1)
 115:/home/adamczer/paparazzi/var/aircrafts/Quad_LisaMX/ap/generated/periodic_telemetry.h **** #define TELEMETRY_MAIN_MSG_IMU_ACCEL_RAW_ID 0
 116:/home/adamczer/paparazzi/var/aircrafts/Quad_LisaMX/ap/generated/periodic_telemetry.h **** #define TELEMETRY_MAIN_MSG_ROTORCRAFT_STATUS_ID 1
 117:/home/adamczer/paparazzi/var/aircrafts/Quad_LisaMX/ap/generated/periodic_telemetry.h **** #define TELEMETRY_MAIN_MSG_FILTER_ALIGNER_ID 2
 118:/home/adamczer/paparazzi/var/aircrafts/Quad_LisaMX/ap/generated/periodic_telemetry.h **** #define TELEMETRY_MAIN_MSG_GUIDANCE_H_INT_ID 3
 119:/home/adamczer/paparazzi/var/aircrafts/Quad_LisaMX/ap/generated/periodic_telemetry.h **** #define TELEMETRY_MAIN_MSG_HFF_ID 4
 120:/home/adamczer/paparazzi/var/aircrafts/Quad_LisaMX/ap/generated/periodic_telemetry.h **** #define TELEMETRY_MAIN_MSG_GEO_MAG_ID 5
 121:/home/adamczer/paparazzi/var/aircrafts/Quad_LisaMX/ap/generated/periodic_telemetry.h **** #define TELEMETRY_MAIN_MSG_IMU_ACCEL_SCALED_ID 6
 122:/home/adamczer/paparazzi/var/aircrafts/Quad_LisaMX/ap/generated/periodic_telemetry.h **** #define TELEMETRY_MAIN_MSG_PPM_ID 7
 123:/home/adamczer/paparazzi/var/aircrafts/Quad_LisaMX/ap/generated/periodic_telemetry.h **** #define TELEMETRY_MAIN_MSG_ROTORCRAFT_RADIO_CONTROL_ID 8
 124:/home/adamczer/paparazzi/var/aircrafts/Quad_LisaMX/ap/generated/periodic_telemetry.h **** #define TELEMETRY_MAIN_MSG_AIR_DATA_ID 9
 125:/home/adamczer/paparazzi/var/aircrafts/Quad_LisaMX/ap/generated/periodic_telemetry.h **** #define TELEMETRY_MAIN_MSG_VFF_ID 10
 126:/home/adamczer/paparazzi/var/aircrafts/Quad_LisaMX/ap/generated/periodic_telemetry.h **** #define TELEMETRY_MAIN_MSG_I2C_ERRORS_ID 11
 127:/home/adamczer/paparazzi/var/aircrafts/Quad_LisaMX/ap/generated/periodic_telemetry.h **** #define TELEMETRY_MAIN_MSG_ENERGY_ID 12
 128:/home/adamczer/paparazzi/var/aircrafts/Quad_LisaMX/ap/generated/periodic_telemetry.h **** #define TELEMETRY_MAIN_MSG_AHRS_EULER_INT_ID 13
 129:/home/adamczer/paparazzi/var/aircrafts/Quad_LisaMX/ap/generated/periodic_telemetry.h **** #define TELEMETRY_MAIN_MSG_AUTOPILOT_VERSION_ID 14
 130:/home/adamczer/paparazzi/var/aircrafts/Quad_LisaMX/ap/generated/periodic_telemetry.h **** #define TELEMETRY_MAIN_MSG_VERT_LOOP_ID 15
 131:/home/adamczer/paparazzi/var/aircrafts/Quad_LisaMX/ap/generated/periodic_telemetry.h **** #define TELEMETRY_MAIN_MSG_STAB_ATTITUDE_ID 16
 132:/home/adamczer/paparazzi/var/aircrafts/Quad_LisaMX/ap/generated/periodic_telemetry.h **** #define TELEMETRY_MAIN_MSG_STATE_FILTER_STATUS_ID 17
 133:/home/adamczer/paparazzi/var/aircrafts/Quad_LisaMX/ap/generated/periodic_telemetry.h **** #define TELEMETRY_MAIN_MSG_UART_ERRORS_ID 18
 134:/home/adamczer/paparazzi/var/aircrafts/Quad_LisaMX/ap/generated/periodic_telemetry.h **** #define TELEMETRY_MAIN_MSG_BARO_RAW_ID 19
 135:/home/adamczer/paparazzi/var/aircrafts/Quad_LisaMX/ap/generated/periodic_telemetry.h **** #define TELEMETRY_MAIN_MSG_INS_ID 20
 136:/home/adamczer/paparazzi/var/aircrafts/Quad_LisaMX/ap/generated/periodic_telemetry.h **** #define TELEMETRY_MAIN_MSG_FILTER_ID 21
 137:/home/adamczer/paparazzi/var/aircrafts/Quad_LisaMX/ap/generated/periodic_telemetry.h **** #define TELEMETRY_MAIN_MSG_ROTORCRAFT_CAM_ID 22
 138:/home/adamczer/paparazzi/var/aircrafts/Quad_LisaMX/ap/generated/periodic_telemetry.h **** #define TELEMETRY_MAIN_MSG_ROTORCRAFT_NAV_STATUS_ID 23
 139:/home/adamczer/paparazzi/var/aircrafts/Quad_LisaMX/ap/generated/periodic_telemetry.h **** #define TELEMETRY_MAIN_MSG_ROTORCRAFT_FP_ID 24
 140:/home/adamczer/paparazzi/var/aircrafts/Quad_LisaMX/ap/generated/periodic_telemetry.h **** #define TELEMETRY_MAIN_MSG_HFF_GPS_ID 25
 141:/home/adamczer/paparazzi/var/aircrafts/Quad_LisaMX/ap/generated/periodic_telemetry.h **** #define TELEMETRY_MAIN_MSG_VFF_EXTENDED_ID 26
 142:/home/adamczer/paparazzi/var/aircrafts/Quad_LisaMX/ap/generated/periodic_telemetry.h **** #define TELEMETRY_MAIN_MSG_AHRS_REF_QUAT_ID 27
 143:/home/adamczer/paparazzi/var/aircrafts/Quad_LisaMX/ap/generated/periodic_telemetry.h **** #define TELEMETRY_MAIN_MSG_ROTORCRAFT_TUNE_HOVER_ID 28
 144:/home/adamczer/paparazzi/var/aircrafts/Quad_LisaMX/ap/generated/periodic_telemetry.h **** #define TELEMETRY_MAIN_MSG_IMU_MAG_SCALED_ID 29
 145:/home/adamczer/paparazzi/var/aircrafts/Quad_LisaMX/ap/generated/periodic_telemetry.h **** #define TELEMETRY_MAIN_MSG_SUPERBITRF_ID 30
 146:/home/adamczer/paparazzi/var/aircrafts/Quad_LisaMX/ap/generated/periodic_telemetry.h **** #define TELEMETRY_MAIN_MSG_GUIDANCE_H_REF_ID 31
 147:/home/adamczer/paparazzi/var/aircrafts/Quad_LisaMX/ap/generated/periodic_telemetry.h **** #define TELEMETRY_MAIN_MSG_RC_ID 32
 148:/home/adamczer/paparazzi/var/aircrafts/Quad_LisaMX/ap/generated/periodic_telemetry.h **** #define TELEMETRY_MAIN_MSG_ROTORCRAFT_CMD_ID 33
 149:/home/adamczer/paparazzi/var/aircrafts/Quad_LisaMX/ap/generated/periodic_telemetry.h **** #define TELEMETRY_MAIN_MSG_WP_MOVED_ID 34
 150:/home/adamczer/paparazzi/var/aircrafts/Quad_LisaMX/ap/generated/periodic_telemetry.h **** #define TELEMETRY_MAIN_MSG_RATE_LOOP_ID 35
 151:/home/adamczer/paparazzi/var/aircrafts/Quad_LisaMX/ap/generated/periodic_telemetry.h **** #define TELEMETRY_MAIN_MSG_HFF_DBG_ID 36
 152:/home/adamczer/paparazzi/var/aircrafts/Quad_LisaMX/ap/generated/periodic_telemetry.h **** #define TELEMETRY_MAIN_MSG_STAB_ATTITUDE_REF_ID 37
 153:/home/adamczer/paparazzi/var/aircrafts/Quad_LisaMX/ap/generated/periodic_telemetry.h **** #define TELEMETRY_MAIN_MSG_IMU_GYRO_RAW_ID 38
 154:/home/adamczer/paparazzi/var/aircrafts/Quad_LisaMX/ap/generated/periodic_telemetry.h **** #define TELEMETRY_MAIN_MSG_GPS_INT_ID 39
 155:/home/adamczer/paparazzi/var/aircrafts/Quad_LisaMX/ap/generated/periodic_telemetry.h **** #define TELEMETRY_MAIN_MSG_HOVER_LOOP_ID 40
 156:/home/adamczer/paparazzi/var/aircrafts/Quad_LisaMX/ap/generated/periodic_telemetry.h **** #define TELEMETRY_MAIN_MSG_AHRS_GYRO_BIAS_INT_ID 41
 157:/home/adamczer/paparazzi/var/aircrafts/Quad_LisaMX/ap/generated/periodic_telemetry.h **** #define TELEMETRY_MAIN_MSG_IMU_GYRO_SCALED_ID 42
 158:/home/adamczer/paparazzi/var/aircrafts/Quad_LisaMX/ap/generated/periodic_telemetry.h **** #define TELEMETRY_MAIN_MSG_IMU_MAG_RAW_ID 43
 159:/home/adamczer/paparazzi/var/aircrafts/Quad_LisaMX/ap/generated/periodic_telemetry.h **** #define TELEMETRY_MAIN_MSG_ALIVE_ID 44
 160:/home/adamczer/paparazzi/var/aircrafts/Quad_LisaMX/ap/generated/periodic_telemetry.h **** #define TELEMETRY_MAIN_MSG_DATALINK_REPORT_ID 45
 161:/home/adamczer/paparazzi/var/aircrafts/Quad_LisaMX/ap/generated/periodic_telemetry.h **** #define TELEMETRY_MAIN_MSG_DL_VALUE_ID 46
 162:/home/adamczer/paparazzi/var/aircrafts/Quad_LisaMX/ap/generated/periodic_telemetry.h **** #define TELEMETRY_MAIN_MSG_ACTUATORS_BEBOP_ID 47
 163:/home/adamczer/paparazzi/var/aircrafts/Quad_LisaMX/ap/generated/periodic_telemetry.h **** #define TELEMETRY_MAIN_MSG_AHRS_QUAT_INT_ID 48
 164:/home/adamczer/paparazzi/var/aircrafts/Quad_LisaMX/ap/generated/periodic_telemetry.h **** #define TELEMETRY_MAIN_MSG_INS_REF_ID 49
 165:/home/adamczer/paparazzi/var/aircrafts/Quad_LisaMX/ap/generated/periodic_telemetry.h **** #define TELEMETRY_MAIN_NB_MSG 50
 166:/home/adamczer/paparazzi/var/aircrafts/Quad_LisaMX/ap/generated/periodic_telemetry.h **** #define TELEMETRY_MAIN_STRUCT { \
 167:/home/adamczer/paparazzi/var/aircrafts/Quad_LisaMX/ap/generated/periodic_telemetry.h ****   { "IMU_ACCEL_RAW", NULL }, \
 168:/home/adamczer/paparazzi/var/aircrafts/Quad_LisaMX/ap/generated/periodic_telemetry.h ****   { "ROTORCRAFT_STATUS", NULL }, \
 169:/home/adamczer/paparazzi/var/aircrafts/Quad_LisaMX/ap/generated/periodic_telemetry.h ****   { "FILTER_ALIGNER", NULL }, \
 170:/home/adamczer/paparazzi/var/aircrafts/Quad_LisaMX/ap/generated/periodic_telemetry.h ****   { "GUIDANCE_H_INT", NULL }, \
 171:/home/adamczer/paparazzi/var/aircrafts/Quad_LisaMX/ap/generated/periodic_telemetry.h ****   { "HFF", NULL }, \
 172:/home/adamczer/paparazzi/var/aircrafts/Quad_LisaMX/ap/generated/periodic_telemetry.h ****   { "GEO_MAG", NULL }, \
 173:/home/adamczer/paparazzi/var/aircrafts/Quad_LisaMX/ap/generated/periodic_telemetry.h ****   { "IMU_ACCEL_SCALED", NULL }, \
 174:/home/adamczer/paparazzi/var/aircrafts/Quad_LisaMX/ap/generated/periodic_telemetry.h ****   { "PPM", NULL }, \
 175:/home/adamczer/paparazzi/var/aircrafts/Quad_LisaMX/ap/generated/periodic_telemetry.h ****   { "ROTORCRAFT_RADIO_CONTROL", NULL }, \
 176:/home/adamczer/paparazzi/var/aircrafts/Quad_LisaMX/ap/generated/periodic_telemetry.h ****   { "AIR_DATA", NULL }, \
 177:/home/adamczer/paparazzi/var/aircrafts/Quad_LisaMX/ap/generated/periodic_telemetry.h ****   { "VFF", NULL }, \
 178:/home/adamczer/paparazzi/var/aircrafts/Quad_LisaMX/ap/generated/periodic_telemetry.h ****   { "I2C_ERRORS", NULL }, \
 179:/home/adamczer/paparazzi/var/aircrafts/Quad_LisaMX/ap/generated/periodic_telemetry.h ****   { "ENERGY", NULL }, \
 180:/home/adamczer/paparazzi/var/aircrafts/Quad_LisaMX/ap/generated/periodic_telemetry.h ****   { "AHRS_EULER_INT", NULL }, \
 181:/home/adamczer/paparazzi/var/aircrafts/Quad_LisaMX/ap/generated/periodic_telemetry.h ****   { "AUTOPILOT_VERSION", NULL }, \
 182:/home/adamczer/paparazzi/var/aircrafts/Quad_LisaMX/ap/generated/periodic_telemetry.h ****   { "VERT_LOOP", NULL }, \
 183:/home/adamczer/paparazzi/var/aircrafts/Quad_LisaMX/ap/generated/periodic_telemetry.h ****   { "STAB_ATTITUDE", NULL }, \
 184:/home/adamczer/paparazzi/var/aircrafts/Quad_LisaMX/ap/generated/periodic_telemetry.h ****   { "STATE_FILTER_STATUS", NULL }, \
 185:/home/adamczer/paparazzi/var/aircrafts/Quad_LisaMX/ap/generated/periodic_telemetry.h ****   { "UART_ERRORS", NULL }, \
 186:/home/adamczer/paparazzi/var/aircrafts/Quad_LisaMX/ap/generated/periodic_telemetry.h ****   { "BARO_RAW", NULL }, \
 187:/home/adamczer/paparazzi/var/aircrafts/Quad_LisaMX/ap/generated/periodic_telemetry.h ****   { "INS", NULL }, \
 188:/home/adamczer/paparazzi/var/aircrafts/Quad_LisaMX/ap/generated/periodic_telemetry.h ****   { "FILTER", NULL }, \
 189:/home/adamczer/paparazzi/var/aircrafts/Quad_LisaMX/ap/generated/periodic_telemetry.h ****   { "ROTORCRAFT_CAM", NULL }, \
 190:/home/adamczer/paparazzi/var/aircrafts/Quad_LisaMX/ap/generated/periodic_telemetry.h ****   { "ROTORCRAFT_NAV_STATUS", NULL }, \
 191:/home/adamczer/paparazzi/var/aircrafts/Quad_LisaMX/ap/generated/periodic_telemetry.h ****   { "ROTORCRAFT_FP", NULL }, \
 192:/home/adamczer/paparazzi/var/aircrafts/Quad_LisaMX/ap/generated/periodic_telemetry.h ****   { "HFF_GPS", NULL }, \
 193:/home/adamczer/paparazzi/var/aircrafts/Quad_LisaMX/ap/generated/periodic_telemetry.h ****   { "VFF_EXTENDED", NULL }, \
 194:/home/adamczer/paparazzi/var/aircrafts/Quad_LisaMX/ap/generated/periodic_telemetry.h ****   { "AHRS_REF_QUAT", NULL }, \
 195:/home/adamczer/paparazzi/var/aircrafts/Quad_LisaMX/ap/generated/periodic_telemetry.h ****   { "ROTORCRAFT_TUNE_HOVER", NULL }, \
 196:/home/adamczer/paparazzi/var/aircrafts/Quad_LisaMX/ap/generated/periodic_telemetry.h ****   { "IMU_MAG_SCALED", NULL }, \
 197:/home/adamczer/paparazzi/var/aircrafts/Quad_LisaMX/ap/generated/periodic_telemetry.h ****   { "SUPERBITRF", NULL }, \
 198:/home/adamczer/paparazzi/var/aircrafts/Quad_LisaMX/ap/generated/periodic_telemetry.h ****   { "GUIDANCE_H_REF", NULL }, \
 199:/home/adamczer/paparazzi/var/aircrafts/Quad_LisaMX/ap/generated/periodic_telemetry.h ****   { "RC", NULL }, \
 200:/home/adamczer/paparazzi/var/aircrafts/Quad_LisaMX/ap/generated/periodic_telemetry.h ****   { "ROTORCRAFT_CMD", NULL }, \
 201:/home/adamczer/paparazzi/var/aircrafts/Quad_LisaMX/ap/generated/periodic_telemetry.h ****   { "WP_MOVED", NULL }, \
 202:/home/adamczer/paparazzi/var/aircrafts/Quad_LisaMX/ap/generated/periodic_telemetry.h ****   { "RATE_LOOP", NULL }, \
 203:/home/adamczer/paparazzi/var/aircrafts/Quad_LisaMX/ap/generated/periodic_telemetry.h ****   { "HFF_DBG", NULL }, \
 204:/home/adamczer/paparazzi/var/aircrafts/Quad_LisaMX/ap/generated/periodic_telemetry.h ****   { "STAB_ATTITUDE_REF", NULL }, \
 205:/home/adamczer/paparazzi/var/aircrafts/Quad_LisaMX/ap/generated/periodic_telemetry.h ****   { "IMU_GYRO_RAW", NULL }, \
 206:/home/adamczer/paparazzi/var/aircrafts/Quad_LisaMX/ap/generated/periodic_telemetry.h ****   { "GPS_INT", NULL }, \
 207:/home/adamczer/paparazzi/var/aircrafts/Quad_LisaMX/ap/generated/periodic_telemetry.h ****   { "HOVER_LOOP", NULL }, \
 208:/home/adamczer/paparazzi/var/aircrafts/Quad_LisaMX/ap/generated/periodic_telemetry.h ****   { "AHRS_GYRO_BIAS_INT", NULL }, \
 209:/home/adamczer/paparazzi/var/aircrafts/Quad_LisaMX/ap/generated/periodic_telemetry.h ****   { "IMU_GYRO_SCALED", NULL }, \
 210:/home/adamczer/paparazzi/var/aircrafts/Quad_LisaMX/ap/generated/periodic_telemetry.h ****   { "IMU_MAG_RAW", NULL }, \
 211:/home/adamczer/paparazzi/var/aircrafts/Quad_LisaMX/ap/generated/periodic_telemetry.h ****   { "ALIVE", NULL }, \
 212:/home/adamczer/paparazzi/var/aircrafts/Quad_LisaMX/ap/generated/periodic_telemetry.h ****   { "DATALINK_REPORT", NULL }, \
 213:/home/adamczer/paparazzi/var/aircrafts/Quad_LisaMX/ap/generated/periodic_telemetry.h ****   { "DL_VALUE", NULL }, \
 214:/home/adamczer/paparazzi/var/aircrafts/Quad_LisaMX/ap/generated/periodic_telemetry.h ****   { "ACTUATORS_BEBOP", NULL }, \
 215:/home/adamczer/paparazzi/var/aircrafts/Quad_LisaMX/ap/generated/periodic_telemetry.h ****   { "AHRS_QUAT_INT", NULL }, \
 216:/home/adamczer/paparazzi/var/aircrafts/Quad_LisaMX/ap/generated/periodic_telemetry.h ****   { "INS_REF", NULL }, \
 217:/home/adamczer/paparazzi/var/aircrafts/Quad_LisaMX/ap/generated/periodic_telemetry.h **** };
 218:/home/adamczer/paparazzi/var/aircrafts/Quad_LisaMX/ap/generated/periodic_telemetry.h **** 
 219:/home/adamczer/paparazzi/var/aircrafts/Quad_LisaMX/ap/generated/periodic_telemetry.h **** /* Functions for Main process */
 220:/home/adamczer/paparazzi/var/aircrafts/Quad_LisaMX/ap/generated/periodic_telemetry.h **** #ifdef PERIODIC_C_MAIN
 221:/home/adamczer/paparazzi/var/aircrafts/Quad_LisaMX/ap/generated/periodic_telemetry.h **** #ifndef TELEMETRY_MODE_MAIN
 222:/home/adamczer/paparazzi/var/aircrafts/Quad_LisaMX/ap/generated/periodic_telemetry.h **** #define TELEMETRY_MODE_MAIN 0
 223:/home/adamczer/paparazzi/var/aircrafts/Quad_LisaMX/ap/generated/periodic_telemetry.h **** #endif
 224:/home/adamczer/paparazzi/var/aircrafts/Quad_LisaMX/ap/generated/periodic_telemetry.h **** uint8_t telemetry_mode_Main = TELEMETRY_MODE_MAIN;
 225:/home/adamczer/paparazzi/var/aircrafts/Quad_LisaMX/ap/generated/periodic_telemetry.h **** struct telemetry_msg telemetry_msg_Main[TELEMETRY_MAIN_NB_MSG] = TELEMETRY_MAIN_STRUCT
 226:/home/adamczer/paparazzi/var/aircrafts/Quad_LisaMX/ap/generated/periodic_telemetry.h **** struct pprz_telemetry telemetry_Main = { TELEMETRY_MAIN_NB_MSG, telemetry_msg_Main };
 227:/home/adamczer/paparazzi/var/aircrafts/Quad_LisaMX/ap/generated/periodic_telemetry.h **** #else /* PERIODIC_C_MAIN not defined (general header) */
 228:/home/adamczer/paparazzi/var/aircrafts/Quad_LisaMX/ap/generated/periodic_telemetry.h **** extern uint8_t telemetry_mode_Main;
 229:/home/adamczer/paparazzi/var/aircrafts/Quad_LisaMX/ap/generated/periodic_telemetry.h **** extern struct telemetry_msg telemetry_msg_Main[TELEMETRY_MAIN_NB_MSG];
 230:/home/adamczer/paparazzi/var/aircrafts/Quad_LisaMX/ap/generated/periodic_telemetry.h **** extern struct pprz_telemetry telemetry_Main;
 231:/home/adamczer/paparazzi/var/aircrafts/Quad_LisaMX/ap/generated/periodic_telemetry.h **** #endif /* PERIODIC_C_MAIN */
 232:/home/adamczer/paparazzi/var/aircrafts/Quad_LisaMX/ap/generated/periodic_telemetry.h **** static inline void periodic_telemetry_send_Main(struct transport_tx *trans __attribute__((unused)),
 233:/home/adamczer/paparazzi/var/aircrafts/Quad_LisaMX/ap/generated/periodic_telemetry.h ****   if (telemetry_mode_Main == TELEMETRY_MODE_Main_default) {
 772              		.loc 6 233 0
 773 03e4 584C     		ldr	r4, .L773+24
 774 03e6 2278     		ldrb	r2, [r4]	@ zero_extendqisi2
 775 03e8 002A     		cmp	r2, #0
 776 03ea 40F08881 		bne	.L47
 777              	.LBB150:
 234:/home/adamczer/paparazzi/var/aircrafts/Quad_LisaMX/ap/generated/periodic_telemetry.h ****     static uint8_t i128 = 0; i128++; if (i128>=128) i128=0;
 778              		.loc 6 234 0
 779 03ee DFF894A1 		ldr	r10, .L773+84
 235:/home/adamczer/paparazzi/var/aircrafts/Quad_LisaMX/ap/generated/periodic_telemetry.h ****     static uint16_t i512 = 0; i512++; if (i512>=512) i512=0;
 236:/home/adamczer/paparazzi/var/aircrafts/Quad_LisaMX/ap/generated/periodic_telemetry.h ****     static uint16_t i563 = 0; i563++; if (i563>=563) i563=0;
 237:/home/adamczer/paparazzi/var/aircrafts/Quad_LisaMX/ap/generated/periodic_telemetry.h ****     static uint16_t i614 = 0; i614++; if (i614>=614) i614=0;
 238:/home/adamczer/paparazzi/var/aircrafts/Quad_LisaMX/ap/generated/periodic_telemetry.h ****     static uint16_t i665 = 0; i665++; if (i665>=665) i665=0;
 239:/home/adamczer/paparazzi/var/aircrafts/Quad_LisaMX/ap/generated/periodic_telemetry.h ****     static uint16_t i819 = 0; i819++; if (i819>=819) i819=0;
 240:/home/adamczer/paparazzi/var/aircrafts/Quad_LisaMX/ap/generated/periodic_telemetry.h ****     static uint16_t i1075 = 0; i1075++; if (i1075>=1075) i1075=0;
 241:/home/adamczer/paparazzi/var/aircrafts/Quad_LisaMX/ap/generated/periodic_telemetry.h ****     static uint16_t i1280 = 0; i1280++; if (i1280>=1280) i1280=0;
 242:/home/adamczer/paparazzi/var/aircrafts/Quad_LisaMX/ap/generated/periodic_telemetry.h ****     static uint16_t i1536 = 0; i1536++; if (i1536>=1536) i1536=0;
 243:/home/adamczer/paparazzi/var/aircrafts/Quad_LisaMX/ap/generated/periodic_telemetry.h ****     static uint16_t i1587 = 0; i1587++; if (i1587>=1587) i1587=0;
 244:/home/adamczer/paparazzi/var/aircrafts/Quad_LisaMX/ap/generated/periodic_telemetry.h ****     static uint16_t i1638 = 0; i1638++; if (i1638>=1638) i1638=0;
 245:/home/adamczer/paparazzi/var/aircrafts/Quad_LisaMX/ap/generated/periodic_telemetry.h ****     static uint16_t i2099 = 0; i2099++; if (i2099>=2099) i2099=0;
 246:/home/adamczer/paparazzi/var/aircrafts/Quad_LisaMX/ap/generated/periodic_telemetry.h ****     static uint16_t i2611 = 0; i2611++; if (i2611>=2611) i2611=0;
 780              		.loc 6 246 0
 781 03f2 DFF894B1 		ldr	fp, .L773+88
 234:/home/adamczer/paparazzi/var/aircrafts/Quad_LisaMX/ap/generated/periodic_telemetry.h ****     static uint8_t i128 = 0; i128++; if (i128>=128) i128=0;
 782              		.loc 6 234 0
 783 03f6 9AF80030 		ldrb	r3, [r10]	@ zero_extendqisi2
 784 03fa 0133     		adds	r3, r3, #1
 785 03fc DBB2     		uxtb	r3, r3
 786 03fe 1906     		lsls	r1, r3, #24
 787 0400 48BF     		it	mi
 788 0402 8AF80020 		strbmi	r2, [r10]
 235:/home/adamczer/paparazzi/var/aircrafts/Quad_LisaMX/ap/generated/periodic_telemetry.h ****     static uint16_t i512 = 0; i512++; if (i512>=512) i512=0;
 789              		.loc 6 235 0
 790 0406 514A     		ldr	r2, .L773+28
 234:/home/adamczer/paparazzi/var/aircrafts/Quad_LisaMX/ap/generated/periodic_telemetry.h ****     static uint8_t i128 = 0; i128++; if (i128>=128) i128=0;
 791              		.loc 6 234 0
 792 0408 58BF     		it	pl
 793 040a 8AF80030 		strbpl	r3, [r10]
 235:/home/adamczer/paparazzi/var/aircrafts/Quad_LisaMX/ap/generated/periodic_telemetry.h ****     static uint16_t i512 = 0; i512++; if (i512>=512) i512=0;
 794              		.loc 6 235 0
 795 040e 1388     		ldrh	r3, [r2]
 796 0410 0133     		adds	r3, r3, #1
 797 0412 9BB2     		uxth	r3, r3
 798 0414 B3F5007F 		cmp	r3, #512
 799 0418 28BF     		it	cs
 800 041a 0023     		movcs	r3, #0
 801 041c 1380     		strh	r3, [r2]	@ movhi
 236:/home/adamczer/paparazzi/var/aircrafts/Quad_LisaMX/ap/generated/periodic_telemetry.h ****     static uint16_t i614 = 0; i614++; if (i614>=614) i614=0;
 802              		.loc 6 236 0
 803 041e 4C4A     		ldr	r2, .L773+32
 804 0420 1388     		ldrh	r3, [r2]
 805 0422 0133     		adds	r3, r3, #1
 806 0424 9BB2     		uxth	r3, r3
 807 0426 40F23221 		movw	r1, #562
 808 042a 8B42     		cmp	r3, r1
 809 042c 88BF     		it	hi
 810 042e 0023     		movhi	r3, #0
 811 0430 1380     		strh	r3, [r2]	@ movhi
 237:/home/adamczer/paparazzi/var/aircrafts/Quad_LisaMX/ap/generated/periodic_telemetry.h ****     static uint16_t i665 = 0; i665++; if (i665>=665) i665=0;
 812              		.loc 6 237 0
 813 0432 484A     		ldr	r2, .L773+36
 814 0434 1388     		ldrh	r3, [r2]
 815 0436 0133     		adds	r3, r3, #1
 816 0438 9BB2     		uxth	r3, r3
 817 043a 40F26521 		movw	r1, #613
 818 043e 8B42     		cmp	r3, r1
 819 0440 88BF     		it	hi
 820 0442 0023     		movhi	r3, #0
 821 0444 1380     		strh	r3, [r2]	@ movhi
 238:/home/adamczer/paparazzi/var/aircrafts/Quad_LisaMX/ap/generated/periodic_telemetry.h ****     static uint16_t i819 = 0; i819++; if (i819>=819) i819=0;
 822              		.loc 6 238 0
 823 0446 444A     		ldr	r2, .L773+40
 824 0448 1388     		ldrh	r3, [r2]
 825 044a 0133     		adds	r3, r3, #1
 826 044c 9BB2     		uxth	r3, r3
 827 044e B3F5267F 		cmp	r3, #664
 828 0452 88BF     		it	hi
 829 0454 0023     		movhi	r3, #0
 830 0456 1380     		strh	r3, [r2]	@ movhi
 239:/home/adamczer/paparazzi/var/aircrafts/Quad_LisaMX/ap/generated/periodic_telemetry.h ****     static uint16_t i1075 = 0; i1075++; if (i1075>=1075) i1075=0;
 831              		.loc 6 239 0
 832 0458 404A     		ldr	r2, .L773+44
 833 045a 1388     		ldrh	r3, [r2]
 834 045c 0133     		adds	r3, r3, #1
 835 045e 9BB2     		uxth	r3, r3
 836 0460 40F23231 		movw	r1, #818
 837 0464 8B42     		cmp	r3, r1
 838 0466 88BF     		it	hi
 839 0468 0023     		movhi	r3, #0
 840 046a 1380     		strh	r3, [r2]	@ movhi
 240:/home/adamczer/paparazzi/var/aircrafts/Quad_LisaMX/ap/generated/periodic_telemetry.h ****     static uint16_t i1280 = 0; i1280++; if (i1280>=1280) i1280=0;
 841              		.loc 6 240 0
 842 046c 3C4A     		ldr	r2, .L773+48
 843 046e 1388     		ldrh	r3, [r2]
 844 0470 0133     		adds	r3, r3, #1
 845 0472 9BB2     		uxth	r3, r3
 846 0474 40F23241 		movw	r1, #1074
 847 0478 8B42     		cmp	r3, r1
 848 047a 88BF     		it	hi
 849 047c 0023     		movhi	r3, #0
 850 047e 1380     		strh	r3, [r2]	@ movhi
 241:/home/adamczer/paparazzi/var/aircrafts/Quad_LisaMX/ap/generated/periodic_telemetry.h ****     static uint16_t i1536 = 0; i1536++; if (i1536>=1536) i1536=0;
 851              		.loc 6 241 0
 852 0480 384A     		ldr	r2, .L773+52
 853 0482 1388     		ldrh	r3, [r2]
 854 0484 0133     		adds	r3, r3, #1
 855 0486 9BB2     		uxth	r3, r3
 856 0488 B3F5A06F 		cmp	r3, #1280
 857 048c 28BF     		it	cs
 858 048e 0023     		movcs	r3, #0
 859 0490 1380     		strh	r3, [r2]	@ movhi
 242:/home/adamczer/paparazzi/var/aircrafts/Quad_LisaMX/ap/generated/periodic_telemetry.h ****     static uint16_t i1587 = 0; i1587++; if (i1587>=1587) i1587=0;
 860              		.loc 6 242 0
 861 0492 354A     		ldr	r2, .L773+56
 862 0494 1388     		ldrh	r3, [r2]
 863 0496 0133     		adds	r3, r3, #1
 864 0498 9BB2     		uxth	r3, r3
 865 049a B3F5C06F 		cmp	r3, #1536
 866 049e 28BF     		it	cs
 867 04a0 0023     		movcs	r3, #0
 868 04a2 1380     		strh	r3, [r2]	@ movhi
 243:/home/adamczer/paparazzi/var/aircrafts/Quad_LisaMX/ap/generated/periodic_telemetry.h ****     static uint16_t i1638 = 0; i1638++; if (i1638>=1638) i1638=0;
 869              		.loc 6 243 0
 870 04a4 314A     		ldr	r2, .L773+60
 871 04a6 1388     		ldrh	r3, [r2]
 872 04a8 0133     		adds	r3, r3, #1
 873 04aa 9BB2     		uxth	r3, r3
 874 04ac 40F23261 		movw	r1, #1586
 875 04b0 8B42     		cmp	r3, r1
 876 04b2 88BF     		it	hi
 877 04b4 0023     		movhi	r3, #0
 878 04b6 1380     		strh	r3, [r2]	@ movhi
 244:/home/adamczer/paparazzi/var/aircrafts/Quad_LisaMX/ap/generated/periodic_telemetry.h ****     static uint16_t i2099 = 0; i2099++; if (i2099>=2099) i2099=0;
 879              		.loc 6 244 0
 880 04b8 2D4A     		ldr	r2, .L773+64
 881 04ba 1388     		ldrh	r3, [r2]
 882 04bc 0133     		adds	r3, r3, #1
 883 04be 9BB2     		uxth	r3, r3
 884 04c0 40F26561 		movw	r1, #1637
 885 04c4 8B42     		cmp	r3, r1
 886 04c6 88BF     		it	hi
 887 04c8 0023     		movhi	r3, #0
 888 04ca 1380     		strh	r3, [r2]	@ movhi
 245:/home/adamczer/paparazzi/var/aircrafts/Quad_LisaMX/ap/generated/periodic_telemetry.h ****     static uint16_t i2611 = 0; i2611++; if (i2611>=2611) i2611=0;
 889              		.loc 6 245 0
 890 04cc 294A     		ldr	r2, .L773+68
 891 04ce 1388     		ldrh	r3, [r2]
 892 04d0 0133     		adds	r3, r3, #1
 893 04d2 9BB2     		uxth	r3, r3
 894 04d4 40F63201 		movw	r1, #2098
 895 04d8 8B42     		cmp	r3, r1
 896 04da 88BF     		it	hi
 897 04dc 0023     		movhi	r3, #0
 898 04de 1380     		strh	r3, [r2]	@ movhi
 899              		.loc 6 246 0
 900 04e0 BBF80030 		ldrh	r3, [fp]
 901 04e4 0133     		adds	r3, r3, #1
 902 04e6 9BB2     		uxth	r3, r3
 903 04e8 40F63222 		movw	r2, #2610
 904 04ec 9342     		cmp	r3, r2
 247:/home/adamczer/paparazzi/var/aircrafts/Quad_LisaMX/ap/generated/periodic_telemetry.h ****     static uint16_t i5683 = 0; i5683++; if (i5683>=5683) i5683=0;
 905              		.loc 6 247 0
 906 04ee 224A     		ldr	r2, .L773+72
 246:/home/adamczer/paparazzi/var/aircrafts/Quad_LisaMX/ap/generated/periodic_telemetry.h ****     static uint16_t i5683 = 0; i5683++; if (i5683>=5683) i5683=0;
 907              		.loc 6 246 0
 908 04f0 88BF     		it	hi
 909 04f2 0023     		movhi	r3, #0
 910 04f4 ABF80030 		strh	r3, [fp]	@ movhi
 911              		.loc 6 247 0
 912 04f8 1388     		ldrh	r3, [r2]
 913 04fa 0133     		adds	r3, r3, #1
 914 04fc 9BB2     		uxth	r3, r3
 915 04fe 41F23261 		movw	r1, #5682
 916 0502 8B42     		cmp	r3, r1
 917 0504 88BF     		it	hi
 918 0506 0023     		movhi	r3, #0
 919 0508 1380     		strh	r3, [r2]	@ movhi
 248:/home/adamczer/paparazzi/var/aircrafts/Quad_LisaMX/ap/generated/periodic_telemetry.h ****     if (i5683 == 0) {
 920              		.loc 6 248 0
 921 050a 1388     		ldrh	r3, [r2]
 922 050c 3BB9     		cbnz	r3, .L76
 249:/home/adamczer/paparazzi/var/aircrafts/Quad_LisaMX/ap/generated/periodic_telemetry.h ****       if (telemetry_Main.msgs[TELEMETRY_MAIN_MSG_AUTOPILOT_VERSION_ID].cb != NULL)
 923              		.loc 6 249 0
 924 050e 1B4B     		ldr	r3, .L773+76
 925 0510 5B68     		ldr	r3, [r3, #4]
 926 0512 D3F8F833 		ldr	r3, [r3, #1016]
 927 0516 13B1     		cbz	r3, .L76
 250:/home/adamczer/paparazzi/var/aircrafts/Quad_LisaMX/ap/generated/periodic_telemetry.h ****         telemetry_Main.msgs[TELEMETRY_MAIN_MSG_AUTOPILOT_VERSION_ID].cb(trans, dev);
 928              		.loc 6 250 0
 929 0518 0948     		ldr	r0, .L773+16
 930              	.LVL77:
 931 051a 0A49     		ldr	r1, .L773+20
 932              	.LVL78:
 933 051c 9847     		blx	r3
 934              	.LVL79:
 935              	.L76:
 251:/home/adamczer/paparazzi/var/aircrafts/Quad_LisaMX/ap/generated/periodic_telemetry.h **** #if USE_PERIODIC_TELEMETRY_REPORT
 252:/home/adamczer/paparazzi/var/aircrafts/Quad_LisaMX/ap/generated/periodic_telemetry.h ****       else periodic_telemetry_err_report(TELEMETRY_PROCESS_Main, telemetry_mode_Main, TELEMETRY_MAI
 253:/home/adamczer/paparazzi/var/aircrafts/Quad_LisaMX/ap/generated/periodic_telemetry.h **** #endif
 254:/home/adamczer/paparazzi/var/aircrafts/Quad_LisaMX/ap/generated/periodic_telemetry.h ****     }
 255:/home/adamczer/paparazzi/var/aircrafts/Quad_LisaMX/ap/generated/periodic_telemetry.h ****     if (i2611 == 51) {
 936              		.loc 6 255 0
 937 051e BBF80030 		ldrh	r3, [fp]
 938 0522 332B     		cmp	r3, #51
 939 0524 32D1     		bne	.L77
 256:/home/adamczer/paparazzi/var/aircrafts/Quad_LisaMX/ap/generated/periodic_telemetry.h ****       if (telemetry_Main.msgs[TELEMETRY_MAIN_MSG_DATALINK_REPORT_ID].cb != NULL)
 940              		.loc 6 256 0
 941 0526 154B     		ldr	r3, .L773+76
 942 0528 5B68     		ldr	r3, [r3, #4]
 943 052a D3F8343C 		ldr	r3, [r3, #3124]
 944 052e 33E0     		b	.L743
 945              	.L774:
 946              		.align	2
 947              	.L773:
 948 0530 00000000 		.word	radio_control
 949 0534 00000000 		.word	autopilot_mode
 950 0538 00000000 		.word	gps
 951 053c 00000000 		.word	.LANCHOR13
 952 0540 08010000 		.word	pprz_tp+264
 953 0544 28010000 		.word	uart2+296
 954 0548 00000000 		.word	telemetry_mode_Main
 955 054c 00000000 		.word	.LANCHOR15
 956 0550 00000000 		.word	.LANCHOR16
 957 0554 00000000 		.word	.LANCHOR17
 958 0558 00000000 		.word	.LANCHOR18
 959 055c 00000000 		.word	.LANCHOR19
 960 0560 00000000 		.word	.LANCHOR20
 961 0564 00000000 		.word	.LANCHOR21
 962 0568 00000000 		.word	.LANCHOR22
 963 056c 00000000 		.word	.LANCHOR23
 964 0570 00000000 		.word	.LANCHOR24
 965 0574 00000000 		.word	.LANCHOR25
 966 0578 00000000 		.word	.LANCHOR27
 967 057c 00000000 		.word	telemetry_Main
 968 0580 00000000 		.word	autopilot_motors_on
 969 0584 00000000 		.word	.LANCHOR14
 970 0588 00000000 		.word	.LANCHOR26
 971              	.L77:
 257:/home/adamczer/paparazzi/var/aircrafts/Quad_LisaMX/ap/generated/periodic_telemetry.h ****         telemetry_Main.msgs[TELEMETRY_MAIN_MSG_DATALINK_REPORT_ID].cb(trans, dev);
 258:/home/adamczer/paparazzi/var/aircrafts/Quad_LisaMX/ap/generated/periodic_telemetry.h **** #if USE_PERIODIC_TELEMETRY_REPORT
 259:/home/adamczer/paparazzi/var/aircrafts/Quad_LisaMX/ap/generated/periodic_telemetry.h ****       else periodic_telemetry_err_report(TELEMETRY_PROCESS_Main, telemetry_mode_Main, TELEMETRY_MAI
 260:/home/adamczer/paparazzi/var/aircrafts/Quad_LisaMX/ap/generated/periodic_telemetry.h **** #endif
 261:/home/adamczer/paparazzi/var/aircrafts/Quad_LisaMX/ap/generated/periodic_telemetry.h ****     }
 262:/home/adamczer/paparazzi/var/aircrafts/Quad_LisaMX/ap/generated/periodic_telemetry.h ****     else if (i2611 == 102) {
 972              		.loc 6 262 0
 973 058c 662B     		cmp	r3, #102
 974 058e 07D1     		bne	.L78
 263:/home/adamczer/paparazzi/var/aircrafts/Quad_LisaMX/ap/generated/periodic_telemetry.h ****       if (telemetry_Main.msgs[TELEMETRY_MAIN_MSG_INS_REF_ID].cb != NULL)
 975              		.loc 6 263 0
 976 0590 7E4B     		ldr	r3, .L775
 977 0592 5B68     		ldr	r3, [r3, #4]
 978 0594 D3F8443D 		ldr	r3, [r3, #3396]
 979              	.L743:
 980 0598 13B1     		cbz	r3, .L78
 264:/home/adamczer/paparazzi/var/aircrafts/Quad_LisaMX/ap/generated/periodic_telemetry.h ****         telemetry_Main.msgs[TELEMETRY_MAIN_MSG_INS_REF_ID].cb(trans, dev);
 981              		.loc 6 264 0
 982 059a 7D48     		ldr	r0, .L775+4
 983              	.LVL80:
 984 059c 7D49     		ldr	r1, .L775+8
 985              	.LVL81:
 986 059e 9847     		blx	r3
 987              	.LVL82:
 988              	.L78:
 265:/home/adamczer/paparazzi/var/aircrafts/Quad_LisaMX/ap/generated/periodic_telemetry.h **** #if USE_PERIODIC_TELEMETRY_REPORT
 266:/home/adamczer/paparazzi/var/aircrafts/Quad_LisaMX/ap/generated/periodic_telemetry.h ****       else periodic_telemetry_err_report(TELEMETRY_PROCESS_Main, telemetry_mode_Main, TELEMETRY_MAI
 267:/home/adamczer/paparazzi/var/aircrafts/Quad_LisaMX/ap/generated/periodic_telemetry.h **** #endif
 268:/home/adamczer/paparazzi/var/aircrafts/Quad_LisaMX/ap/generated/periodic_telemetry.h ****     }
 269:/home/adamczer/paparazzi/var/aircrafts/Quad_LisaMX/ap/generated/periodic_telemetry.h ****     if (i2099 == 153) {
 989              		.loc 6 269 0
 990 05a0 7D4B     		ldr	r3, .L775+12
 991 05a2 1B88     		ldrh	r3, [r3]
 992 05a4 992B     		cmp	r3, #153
 993 05a6 07D1     		bne	.L79
 270:/home/adamczer/paparazzi/var/aircrafts/Quad_LisaMX/ap/generated/periodic_telemetry.h ****       if (telemetry_Main.msgs[TELEMETRY_MAIN_MSG_I2C_ERRORS_ID].cb != NULL)
 994              		.loc 6 270 0
 995 05a8 784B     		ldr	r3, .L775
 996 05aa 5B68     		ldr	r3, [r3, #4]
 997 05ac D3F82C33 		ldr	r3, [r3, #812]
 998 05b0 13B1     		cbz	r3, .L79
 271:/home/adamczer/paparazzi/var/aircrafts/Quad_LisaMX/ap/generated/periodic_telemetry.h ****         telemetry_Main.msgs[TELEMETRY_MAIN_MSG_I2C_ERRORS_ID].cb(trans, dev);
 999              		.loc 6 271 0
 1000 05b2 7748     		ldr	r0, .L775+4
 1001              	.LVL83:
 1002 05b4 7749     		ldr	r1, .L775+8
 1003              	.LVL84:
 1004 05b6 9847     		blx	r3
 1005              	.LVL85:
 1006              	.L79:
 272:/home/adamczer/paparazzi/var/aircrafts/Quad_LisaMX/ap/generated/periodic_telemetry.h **** #if USE_PERIODIC_TELEMETRY_REPORT
 273:/home/adamczer/paparazzi/var/aircrafts/Quad_LisaMX/ap/generated/periodic_telemetry.h ****       else periodic_telemetry_err_report(TELEMETRY_PROCESS_Main, telemetry_mode_Main, TELEMETRY_MAI
 274:/home/adamczer/paparazzi/var/aircrafts/Quad_LisaMX/ap/generated/periodic_telemetry.h **** #endif
 275:/home/adamczer/paparazzi/var/aircrafts/Quad_LisaMX/ap/generated/periodic_telemetry.h ****     }
 276:/home/adamczer/paparazzi/var/aircrafts/Quad_LisaMX/ap/generated/periodic_telemetry.h ****     if (i1638 == 204) {
 1007              		.loc 6 276 0
 1008 05b8 784B     		ldr	r3, .L775+16
 1009 05ba 1B88     		ldrh	r3, [r3]
 1010 05bc CC2B     		cmp	r3, #204
 1011 05be 07D1     		bne	.L80
 277:/home/adamczer/paparazzi/var/aircrafts/Quad_LisaMX/ap/generated/periodic_telemetry.h ****       if (telemetry_Main.msgs[TELEMETRY_MAIN_MSG_STATE_FILTER_STATUS_ID].cb != NULL)
 1012              		.loc 6 277 0
 1013 05c0 724B     		ldr	r3, .L775
 1014 05c2 5B68     		ldr	r3, [r3, #4]
 1015 05c4 D3F8C434 		ldr	r3, [r3, #1220]
 1016 05c8 13B1     		cbz	r3, .L80
 278:/home/adamczer/paparazzi/var/aircrafts/Quad_LisaMX/ap/generated/periodic_telemetry.h ****         telemetry_Main.msgs[TELEMETRY_MAIN_MSG_STATE_FILTER_STATUS_ID].cb(trans, dev);
 1017              		.loc 6 278 0
 1018 05ca 7148     		ldr	r0, .L775+4
 1019              	.LVL86:
 1020 05cc 7149     		ldr	r1, .L775+8
 1021              	.LVL87:
 1022 05ce 9847     		blx	r3
 1023              	.LVL88:
 1024              	.L80:
 279:/home/adamczer/paparazzi/var/aircrafts/Quad_LisaMX/ap/generated/periodic_telemetry.h **** #if USE_PERIODIC_TELEMETRY_REPORT
 280:/home/adamczer/paparazzi/var/aircrafts/Quad_LisaMX/ap/generated/periodic_telemetry.h ****       else periodic_telemetry_err_report(TELEMETRY_PROCESS_Main, telemetry_mode_Main, TELEMETRY_MAI
 281:/home/adamczer/paparazzi/var/aircrafts/Quad_LisaMX/ap/generated/periodic_telemetry.h **** #endif
 282:/home/adamczer/paparazzi/var/aircrafts/Quad_LisaMX/ap/generated/periodic_telemetry.h ****     }
 283:/home/adamczer/paparazzi/var/aircrafts/Quad_LisaMX/ap/generated/periodic_telemetry.h ****     if (i1587 == 255) {
 1025              		.loc 6 283 0
 1026 05d0 734B     		ldr	r3, .L775+20
 1027 05d2 1B88     		ldrh	r3, [r3]
 1028 05d4 FF2B     		cmp	r3, #255
 1029 05d6 07D1     		bne	.L81
 284:/home/adamczer/paparazzi/var/aircrafts/Quad_LisaMX/ap/generated/periodic_telemetry.h ****       if (telemetry_Main.msgs[TELEMETRY_MAIN_MSG_UART_ERRORS_ID].cb != NULL)
 1030              		.loc 6 284 0
 1031 05d8 6C4B     		ldr	r3, .L775
 1032 05da 5B68     		ldr	r3, [r3, #4]
 1033 05dc D3F80835 		ldr	r3, [r3, #1288]
 1034 05e0 13B1     		cbz	r3, .L81
 285:/home/adamczer/paparazzi/var/aircrafts/Quad_LisaMX/ap/generated/periodic_telemetry.h ****         telemetry_Main.msgs[TELEMETRY_MAIN_MSG_UART_ERRORS_ID].cb(trans, dev);
 1035              		.loc 6 285 0
 1036 05e2 6B48     		ldr	r0, .L775+4
 1037              	.LVL89:
 1038 05e4 6B49     		ldr	r1, .L775+8
 1039              	.LVL90:
 1040 05e6 9847     		blx	r3
 1041              	.LVL91:
 1042              	.L81:
 286:/home/adamczer/paparazzi/var/aircrafts/Quad_LisaMX/ap/generated/periodic_telemetry.h **** #if USE_PERIODIC_TELEMETRY_REPORT
 287:/home/adamczer/paparazzi/var/aircrafts/Quad_LisaMX/ap/generated/periodic_telemetry.h ****       else periodic_telemetry_err_report(TELEMETRY_PROCESS_Main, telemetry_mode_Main, TELEMETRY_MAI
 288:/home/adamczer/paparazzi/var/aircrafts/Quad_LisaMX/ap/generated/periodic_telemetry.h **** #endif
 289:/home/adamczer/paparazzi/var/aircrafts/Quad_LisaMX/ap/generated/periodic_telemetry.h ****     }
 290:/home/adamczer/paparazzi/var/aircrafts/Quad_LisaMX/ap/generated/periodic_telemetry.h ****     if (i1536 == 306) {
 1043              		.loc 6 290 0
 1044 05e8 6E4B     		ldr	r3, .L775+24
 1045 05ea 1B88     		ldrh	r3, [r3]
 1046 05ec B3F5997F 		cmp	r3, #306
 1047 05f0 07D1     		bne	.L82
 291:/home/adamczer/paparazzi/var/aircrafts/Quad_LisaMX/ap/generated/periodic_telemetry.h ****       if (telemetry_Main.msgs[TELEMETRY_MAIN_MSG_SUPERBITRF_ID].cb != NULL)
 1048              		.loc 6 291 0
 1049 05f2 664B     		ldr	r3, .L775
 1050 05f4 5B68     		ldr	r3, [r3, #4]
 1051 05f6 D3F83838 		ldr	r3, [r3, #2104]
 1052 05fa 13B1     		cbz	r3, .L82
 292:/home/adamczer/paparazzi/var/aircrafts/Quad_LisaMX/ap/generated/periodic_telemetry.h ****         telemetry_Main.msgs[TELEMETRY_MAIN_MSG_SUPERBITRF_ID].cb(trans, dev);
 1053              		.loc 6 292 0
 1054 05fc 6448     		ldr	r0, .L775+4
 1055              	.LVL92:
 1056 05fe 6549     		ldr	r1, .L775+8
 1057              	.LVL93:
 1058 0600 9847     		blx	r3
 1059              	.LVL94:
 1060              	.L82:
 293:/home/adamczer/paparazzi/var/aircrafts/Quad_LisaMX/ap/generated/periodic_telemetry.h **** #if USE_PERIODIC_TELEMETRY_REPORT
 294:/home/adamczer/paparazzi/var/aircrafts/Quad_LisaMX/ap/generated/periodic_telemetry.h ****       else periodic_telemetry_err_report(TELEMETRY_PROCESS_Main, telemetry_mode_Main, TELEMETRY_MAI
 295:/home/adamczer/paparazzi/var/aircrafts/Quad_LisaMX/ap/generated/periodic_telemetry.h **** #endif
 296:/home/adamczer/paparazzi/var/aircrafts/Quad_LisaMX/ap/generated/periodic_telemetry.h ****     }
 297:/home/adamczer/paparazzi/var/aircrafts/Quad_LisaMX/ap/generated/periodic_telemetry.h ****     if (i1280 == 357) {
 1061              		.loc 6 297 0
 1062 0602 694B     		ldr	r3, .L775+28
 1063 0604 1A88     		ldrh	r2, [r3]
 1064 0606 40F26513 		movw	r3, #357
 1065 060a 9A42     		cmp	r2, r3
 1066 060c 07D1     		bne	.L83
 298:/home/adamczer/paparazzi/var/aircrafts/Quad_LisaMX/ap/generated/periodic_telemetry.h ****       if (telemetry_Main.msgs[TELEMETRY_MAIN_MSG_ENERGY_ID].cb != NULL)
 1067              		.loc 6 298 0
 1068 060e 5F4B     		ldr	r3, .L775
 1069 0610 5B68     		ldr	r3, [r3, #4]
 1070 0612 D3F87033 		ldr	r3, [r3, #880]
 1071 0616 13B1     		cbz	r3, .L83
 299:/home/adamczer/paparazzi/var/aircrafts/Quad_LisaMX/ap/generated/periodic_telemetry.h ****         telemetry_Main.msgs[TELEMETRY_MAIN_MSG_ENERGY_ID].cb(trans, dev);
 1072              		.loc 6 299 0
 1073 0618 5D48     		ldr	r0, .L775+4
 1074              	.LVL95:
 1075 061a 5E49     		ldr	r1, .L775+8
 1076              	.LVL96:
 1077 061c 9847     		blx	r3
 1078              	.LVL97:
 1079              	.L83:
 300:/home/adamczer/paparazzi/var/aircrafts/Quad_LisaMX/ap/generated/periodic_telemetry.h **** #if USE_PERIODIC_TELEMETRY_REPORT
 301:/home/adamczer/paparazzi/var/aircrafts/Quad_LisaMX/ap/generated/periodic_telemetry.h ****       else periodic_telemetry_err_report(TELEMETRY_PROCESS_Main, telemetry_mode_Main, TELEMETRY_MAI
 302:/home/adamczer/paparazzi/var/aircrafts/Quad_LisaMX/ap/generated/periodic_telemetry.h **** #endif
 303:/home/adamczer/paparazzi/var/aircrafts/Quad_LisaMX/ap/generated/periodic_telemetry.h ****     }
 304:/home/adamczer/paparazzi/var/aircrafts/Quad_LisaMX/ap/generated/periodic_telemetry.h ****     if (i1075 == 408) {
 1080              		.loc 6 304 0
 1081 061e 634B     		ldr	r3, .L775+32
 1082 0620 1B88     		ldrh	r3, [r3]
 1083 0622 B3F5CC7F 		cmp	r3, #408
 1084 0626 07D1     		bne	.L84
 305:/home/adamczer/paparazzi/var/aircrafts/Quad_LisaMX/ap/generated/periodic_telemetry.h ****       if (telemetry_Main.msgs[TELEMETRY_MAIN_MSG_ALIVE_ID].cb != NULL)
 1085              		.loc 6 305 0
 1086 0628 584B     		ldr	r3, .L775
 1087 062a 5B68     		ldr	r3, [r3, #4]
 1088 062c D3F8F03B 		ldr	r3, [r3, #3056]
 1089 0630 13B1     		cbz	r3, .L84
 306:/home/adamczer/paparazzi/var/aircrafts/Quad_LisaMX/ap/generated/periodic_telemetry.h ****         telemetry_Main.msgs[TELEMETRY_MAIN_MSG_ALIVE_ID].cb(trans, dev);
 1090              		.loc 6 306 0
 1091 0632 5748     		ldr	r0, .L775+4
 1092              	.LVL98:
 1093 0634 5749     		ldr	r1, .L775+8
 1094              	.LVL99:
 1095 0636 9847     		blx	r3
 1096              	.LVL100:
 1097              	.L84:
 307:/home/adamczer/paparazzi/var/aircrafts/Quad_LisaMX/ap/generated/periodic_telemetry.h **** #if USE_PERIODIC_TELEMETRY_REPORT
 308:/home/adamczer/paparazzi/var/aircrafts/Quad_LisaMX/ap/generated/periodic_telemetry.h ****       else periodic_telemetry_err_report(TELEMETRY_PROCESS_Main, telemetry_mode_Main, TELEMETRY_MAI
 309:/home/adamczer/paparazzi/var/aircrafts/Quad_LisaMX/ap/generated/periodic_telemetry.h **** #endif
 310:/home/adamczer/paparazzi/var/aircrafts/Quad_LisaMX/ap/generated/periodic_telemetry.h ****     }
 311:/home/adamczer/paparazzi/var/aircrafts/Quad_LisaMX/ap/generated/periodic_telemetry.h ****     if (i819 == 459) {
 1098              		.loc 6 311 0
 1099 0638 5D4B     		ldr	r3, .L775+36
 1100 063a 1A88     		ldrh	r2, [r3]
 1101 063c 40F2CB13 		movw	r3, #459
 1102 0640 9A42     		cmp	r2, r3
 1103 0642 07D1     		bne	.L85
 312:/home/adamczer/paparazzi/var/aircrafts/Quad_LisaMX/ap/generated/periodic_telemetry.h ****       if (telemetry_Main.msgs[TELEMETRY_MAIN_MSG_ROTORCRAFT_NAV_STATUS_ID].cb != NULL)
 1104              		.loc 6 312 0
 1105 0644 514B     		ldr	r3, .L775
 1106 0646 5B68     		ldr	r3, [r3, #4]
 1107 0648 D3F85C36 		ldr	r3, [r3, #1628]
 1108 064c 13B1     		cbz	r3, .L85
 313:/home/adamczer/paparazzi/var/aircrafts/Quad_LisaMX/ap/generated/periodic_telemetry.h ****         telemetry_Main.msgs[TELEMETRY_MAIN_MSG_ROTORCRAFT_NAV_STATUS_ID].cb(trans, dev);
 1109              		.loc 6 313 0
 1110 064e 5048     		ldr	r0, .L775+4
 1111              	.LVL101:
 1112 0650 5049     		ldr	r1, .L775+8
 1113              	.LVL102:
 1114 0652 9847     		blx	r3
 1115              	.LVL103:
 1116              	.L85:
 314:/home/adamczer/paparazzi/var/aircrafts/Quad_LisaMX/ap/generated/periodic_telemetry.h **** #if USE_PERIODIC_TELEMETRY_REPORT
 315:/home/adamczer/paparazzi/var/aircrafts/Quad_LisaMX/ap/generated/periodic_telemetry.h ****       else periodic_telemetry_err_report(TELEMETRY_PROCESS_Main, telemetry_mode_Main, TELEMETRY_MAI
 316:/home/adamczer/paparazzi/var/aircrafts/Quad_LisaMX/ap/generated/periodic_telemetry.h **** #endif
 317:/home/adamczer/paparazzi/var/aircrafts/Quad_LisaMX/ap/generated/periodic_telemetry.h ****     }
 318:/home/adamczer/paparazzi/var/aircrafts/Quad_LisaMX/ap/generated/periodic_telemetry.h ****     if (i665 == 510) {
 1117              		.loc 6 318 0
 1118 0654 574B     		ldr	r3, .L775+40
 1119 0656 1B88     		ldrh	r3, [r3]
 1120 0658 B3F5FF7F 		cmp	r3, #510
 1121 065c 04D1     		bne	.L86
 319:/home/adamczer/paparazzi/var/aircrafts/Quad_LisaMX/ap/generated/periodic_telemetry.h ****       if (telemetry_Main.msgs[TELEMETRY_MAIN_MSG_AIR_DATA_ID].cb != NULL)
 1122              		.loc 6 319 0
 1123 065e 4B4B     		ldr	r3, .L775
 1124 0660 5B68     		ldr	r3, [r3, #4]
 1125 0662 D3F8A432 		ldr	r3, [r3, #676]
 1126 0666 07E0     		b	.L745
 1127              	.L86:
 320:/home/adamczer/paparazzi/var/aircrafts/Quad_LisaMX/ap/generated/periodic_telemetry.h ****         telemetry_Main.msgs[TELEMETRY_MAIN_MSG_AIR_DATA_ID].cb(trans, dev);
 321:/home/adamczer/paparazzi/var/aircrafts/Quad_LisaMX/ap/generated/periodic_telemetry.h **** #if USE_PERIODIC_TELEMETRY_REPORT
 322:/home/adamczer/paparazzi/var/aircrafts/Quad_LisaMX/ap/generated/periodic_telemetry.h ****       else periodic_telemetry_err_report(TELEMETRY_PROCESS_Main, telemetry_mode_Main, TELEMETRY_MAI
 323:/home/adamczer/paparazzi/var/aircrafts/Quad_LisaMX/ap/generated/periodic_telemetry.h **** #endif
 324:/home/adamczer/paparazzi/var/aircrafts/Quad_LisaMX/ap/generated/periodic_telemetry.h ****     }
 325:/home/adamczer/paparazzi/var/aircrafts/Quad_LisaMX/ap/generated/periodic_telemetry.h ****     else if (i665 == 561) {
 1128              		.loc 6 325 0
 1129 0668 40F23122 		movw	r2, #561
 1130 066c 9342     		cmp	r3, r2
 1131 066e 07D1     		bne	.L87
 326:/home/adamczer/paparazzi/var/aircrafts/Quad_LisaMX/ap/generated/periodic_telemetry.h ****       if (telemetry_Main.msgs[TELEMETRY_MAIN_MSG_WP_MOVED_ID].cb != NULL)
 1132              		.loc 6 326 0
 1133 0670 464B     		ldr	r3, .L775
 1134 0672 5B68     		ldr	r3, [r3, #4]
 1135 0674 D3F84839 		ldr	r3, [r3, #2376]
 1136              	.L745:
 1137 0678 13B1     		cbz	r3, .L87
 327:/home/adamczer/paparazzi/var/aircrafts/Quad_LisaMX/ap/generated/periodic_telemetry.h ****         telemetry_Main.msgs[TELEMETRY_MAIN_MSG_WP_MOVED_ID].cb(trans, dev);
 1138              		.loc 6 327 0
 1139 067a 4548     		ldr	r0, .L775+4
 1140              	.LVL104:
 1141 067c 4549     		ldr	r1, .L775+8
 1142              	.LVL105:
 1143 067e 9847     		blx	r3
 1144              	.LVL106:
 1145              	.L87:
 328:/home/adamczer/paparazzi/var/aircrafts/Quad_LisaMX/ap/generated/periodic_telemetry.h **** #if USE_PERIODIC_TELEMETRY_REPORT
 329:/home/adamczer/paparazzi/var/aircrafts/Quad_LisaMX/ap/generated/periodic_telemetry.h ****       else periodic_telemetry_err_report(TELEMETRY_PROCESS_Main, telemetry_mode_Main, TELEMETRY_MAI
 330:/home/adamczer/paparazzi/var/aircrafts/Quad_LisaMX/ap/generated/periodic_telemetry.h **** #endif
 331:/home/adamczer/paparazzi/var/aircrafts/Quad_LisaMX/ap/generated/periodic_telemetry.h ****     }
 332:/home/adamczer/paparazzi/var/aircrafts/Quad_LisaMX/ap/generated/periodic_telemetry.h ****     if (i614 == 612) {
 1146              		.loc 6 332 0
 1147 0680 4D4B     		ldr	r3, .L775+44
 1148 0682 1B88     		ldrh	r3, [r3]
 1149 0684 B3F5197F 		cmp	r3, #612
 1150 0688 07D1     		bne	.L88
 333:/home/adamczer/paparazzi/var/aircrafts/Quad_LisaMX/ap/generated/periodic_telemetry.h ****       if (telemetry_Main.msgs[TELEMETRY_MAIN_MSG_ROTORCRAFT_STATUS_ID].cb != NULL)
 1151              		.loc 6 333 0
 1152 068a 404B     		ldr	r3, .L775
 1153 068c 5B68     		ldr	r3, [r3, #4]
 1154 068e D3F88430 		ldr	r3, [r3, #132]
 1155 0692 13B1     		cbz	r3, .L88
 334:/home/adamczer/paparazzi/var/aircrafts/Quad_LisaMX/ap/generated/periodic_telemetry.h ****         telemetry_Main.msgs[TELEMETRY_MAIN_MSG_ROTORCRAFT_STATUS_ID].cb(trans, dev);
 1156              		.loc 6 334 0
 1157 0694 3E48     		ldr	r0, .L775+4
 1158              	.LVL107:
 1159 0696 3F49     		ldr	r1, .L775+8
 1160              	.LVL108:
 1161 0698 9847     		blx	r3
 1162              	.LVL109:
 1163              	.L88:
 335:/home/adamczer/paparazzi/var/aircrafts/Quad_LisaMX/ap/generated/periodic_telemetry.h **** #if USE_PERIODIC_TELEMETRY_REPORT
 336:/home/adamczer/paparazzi/var/aircrafts/Quad_LisaMX/ap/generated/periodic_telemetry.h ****       else periodic_telemetry_err_report(TELEMETRY_PROCESS_Main, telemetry_mode_Main, TELEMETRY_MAI
 337:/home/adamczer/paparazzi/var/aircrafts/Quad_LisaMX/ap/generated/periodic_telemetry.h **** #endif
 338:/home/adamczer/paparazzi/var/aircrafts/Quad_LisaMX/ap/generated/periodic_telemetry.h ****     }
 339:/home/adamczer/paparazzi/var/aircrafts/Quad_LisaMX/ap/generated/periodic_telemetry.h ****     if (i563 == 100) {
 1164              		.loc 6 339 0
 1165 069a 484B     		ldr	r3, .L775+48
 1166 069c 1B88     		ldrh	r3, [r3]
 1167 069e 642B     		cmp	r3, #100
 1168 06a0 07D1     		bne	.L89
 340:/home/adamczer/paparazzi/var/aircrafts/Quad_LisaMX/ap/generated/periodic_telemetry.h ****       if (telemetry_Main.msgs[TELEMETRY_MAIN_MSG_DL_VALUE_ID].cb != NULL)
 1169              		.loc 6 340 0
 1170 06a2 3A4B     		ldr	r3, .L775
 1171 06a4 5B68     		ldr	r3, [r3, #4]
 1172 06a6 D3F8783C 		ldr	r3, [r3, #3192]
 1173 06aa 13B1     		cbz	r3, .L89
 341:/home/adamczer/paparazzi/var/aircrafts/Quad_LisaMX/ap/generated/periodic_telemetry.h ****         telemetry_Main.msgs[TELEMETRY_MAIN_MSG_DL_VALUE_ID].cb(trans, dev);
 1174              		.loc 6 341 0
 1175 06ac 3848     		ldr	r0, .L775+4
 1176              	.LVL110:
 1177 06ae 3949     		ldr	r1, .L775+8
 1178              	.LVL111:
 1179 06b0 9847     		blx	r3
 1180              	.LVL112:
 1181              	.L89:
 342:/home/adamczer/paparazzi/var/aircrafts/Quad_LisaMX/ap/generated/periodic_telemetry.h **** #if USE_PERIODIC_TELEMETRY_REPORT
 343:/home/adamczer/paparazzi/var/aircrafts/Quad_LisaMX/ap/generated/periodic_telemetry.h ****       else periodic_telemetry_err_report(TELEMETRY_PROCESS_Main, telemetry_mode_Main, TELEMETRY_MAI
 344:/home/adamczer/paparazzi/var/aircrafts/Quad_LisaMX/ap/generated/periodic_telemetry.h **** #endif
 345:/home/adamczer/paparazzi/var/aircrafts/Quad_LisaMX/ap/generated/periodic_telemetry.h ****     }
 346:/home/adamczer/paparazzi/var/aircrafts/Quad_LisaMX/ap/generated/periodic_telemetry.h ****     if (i512 == 151) {
 1182              		.loc 6 346 0
 1183 06b2 434B     		ldr	r3, .L775+52
 1184 06b4 1B88     		ldrh	r3, [r3]
 1185 06b6 972B     		cmp	r3, #151
 1186 06b8 07D1     		bne	.L90
 347:/home/adamczer/paparazzi/var/aircrafts/Quad_LisaMX/ap/generated/periodic_telemetry.h ****       if (telemetry_Main.msgs[TELEMETRY_MAIN_MSG_ROTORCRAFT_CAM_ID].cb != NULL)
 1187              		.loc 6 347 0
 1188 06ba 344B     		ldr	r3, .L775
 1189 06bc 5B68     		ldr	r3, [r3, #4]
 1190 06be D3F81836 		ldr	r3, [r3, #1560]
 1191 06c2 13B1     		cbz	r3, .L90
 348:/home/adamczer/paparazzi/var/aircrafts/Quad_LisaMX/ap/generated/periodic_telemetry.h ****         telemetry_Main.msgs[TELEMETRY_MAIN_MSG_ROTORCRAFT_CAM_ID].cb(trans, dev);
 1192              		.loc 6 348 0
 1193 06c4 3248     		ldr	r0, .L775+4
 1194              	.LVL113:
 1195 06c6 3349     		ldr	r1, .L775+8
 1196              	.LVL114:
 1197 06c8 9847     		blx	r3
 1198              	.LVL115:
 1199              	.L90:
 349:/home/adamczer/paparazzi/var/aircrafts/Quad_LisaMX/ap/generated/periodic_telemetry.h **** #if USE_PERIODIC_TELEMETRY_REPORT
 350:/home/adamczer/paparazzi/var/aircrafts/Quad_LisaMX/ap/generated/periodic_telemetry.h ****       else periodic_telemetry_err_report(TELEMETRY_PROCESS_Main, telemetry_mode_Main, TELEMETRY_MAI
 351:/home/adamczer/paparazzi/var/aircrafts/Quad_LisaMX/ap/generated/periodic_telemetry.h **** #endif
 352:/home/adamczer/paparazzi/var/aircrafts/Quad_LisaMX/ap/generated/periodic_telemetry.h ****     }
 353:/home/adamczer/paparazzi/var/aircrafts/Quad_LisaMX/ap/generated/periodic_telemetry.h ****     if (i128 == 74) {
 1200              		.loc 6 353 0
 1201 06ca 9AF80030 		ldrb	r3, [r10]	@ zero_extendqisi2
 1202 06ce 4A2B     		cmp	r3, #74
 1203 06d0 04D1     		bne	.L91
 354:/home/adamczer/paparazzi/var/aircrafts/Quad_LisaMX/ap/generated/periodic_telemetry.h ****       if (telemetry_Main.msgs[TELEMETRY_MAIN_MSG_INS_ID].cb != NULL)
 1204              		.loc 6 354 0
 1205 06d2 2E4B     		ldr	r3, .L775
 1206 06d4 5B68     		ldr	r3, [r3, #4]
 1207 06d6 D3F89035 		ldr	r3, [r3, #1424]
 1208 06da 0CE0     		b	.L747
 1209              	.L91:
 355:/home/adamczer/paparazzi/var/aircrafts/Quad_LisaMX/ap/generated/periodic_telemetry.h ****         telemetry_Main.msgs[TELEMETRY_MAIN_MSG_INS_ID].cb(trans, dev);
 356:/home/adamczer/paparazzi/var/aircrafts/Quad_LisaMX/ap/generated/periodic_telemetry.h **** #if USE_PERIODIC_TELEMETRY_REPORT
 357:/home/adamczer/paparazzi/var/aircrafts/Quad_LisaMX/ap/generated/periodic_telemetry.h ****       else periodic_telemetry_err_report(TELEMETRY_PROCESS_Main, telemetry_mode_Main, TELEMETRY_MAI
 358:/home/adamczer/paparazzi/var/aircrafts/Quad_LisaMX/ap/generated/periodic_telemetry.h **** #endif
 359:/home/adamczer/paparazzi/var/aircrafts/Quad_LisaMX/ap/generated/periodic_telemetry.h ****     }
 360:/home/adamczer/paparazzi/var/aircrafts/Quad_LisaMX/ap/generated/periodic_telemetry.h ****     else if (i128 == 125) {
 1210              		.loc 6 360 0
 1211 06dc 7D2B     		cmp	r3, #125
 1212 06de 04D1     		bne	.L93
 361:/home/adamczer/paparazzi/var/aircrafts/Quad_LisaMX/ap/generated/periodic_telemetry.h ****       if (telemetry_Main.msgs[TELEMETRY_MAIN_MSG_GPS_INT_ID].cb != NULL)
 1213              		.loc 6 361 0
 1214 06e0 2A4B     		ldr	r3, .L775
 1215 06e2 5B68     		ldr	r3, [r3, #4]
 1216 06e4 D3F89C3A 		ldr	r3, [r3, #2716]
 1217 06e8 05E0     		b	.L747
 1218              	.L93:
 362:/home/adamczer/paparazzi/var/aircrafts/Quad_LisaMX/ap/generated/periodic_telemetry.h ****         telemetry_Main.msgs[TELEMETRY_MAIN_MSG_GPS_INT_ID].cb(trans, dev);
 363:/home/adamczer/paparazzi/var/aircrafts/Quad_LisaMX/ap/generated/periodic_telemetry.h **** #if USE_PERIODIC_TELEMETRY_REPORT
 364:/home/adamczer/paparazzi/var/aircrafts/Quad_LisaMX/ap/generated/periodic_telemetry.h ****       else periodic_telemetry_err_report(TELEMETRY_PROCESS_Main, telemetry_mode_Main, TELEMETRY_MAI
 365:/home/adamczer/paparazzi/var/aircrafts/Quad_LisaMX/ap/generated/periodic_telemetry.h **** #endif
 366:/home/adamczer/paparazzi/var/aircrafts/Quad_LisaMX/ap/generated/periodic_telemetry.h ****     }
 367:/home/adamczer/paparazzi/var/aircrafts/Quad_LisaMX/ap/generated/periodic_telemetry.h ****     else if (i128 == 48) {
 1219              		.loc 6 367 0
 1220 06ea 302B     		cmp	r3, #48
 1221 06ec 07D1     		bne	.L47
 368:/home/adamczer/paparazzi/var/aircrafts/Quad_LisaMX/ap/generated/periodic_telemetry.h ****       if (telemetry_Main.msgs[TELEMETRY_MAIN_MSG_ROTORCRAFT_FP_ID].cb != NULL)
 1222              		.loc 6 368 0
 1223 06ee 274B     		ldr	r3, .L775
 1224 06f0 5B68     		ldr	r3, [r3, #4]
 1225 06f2 D3F8A036 		ldr	r3, [r3, #1696]
 1226              	.L747:
 1227 06f6 13B1     		cbz	r3, .L47
 369:/home/adamczer/paparazzi/var/aircrafts/Quad_LisaMX/ap/generated/periodic_telemetry.h ****         telemetry_Main.msgs[TELEMETRY_MAIN_MSG_ROTORCRAFT_FP_ID].cb(trans, dev);
 1228              		.loc 6 369 0
 1229 06f8 2548     		ldr	r0, .L775+4
 1230              	.LVL116:
 1231 06fa 2649     		ldr	r1, .L775+8
 1232              	.LVL117:
 1233 06fc 9847     		blx	r3
 1234              	.LVL118:
 1235              	.L47:
 1236              	.LBE150:
 370:/home/adamczer/paparazzi/var/aircrafts/Quad_LisaMX/ap/generated/periodic_telemetry.h **** #if USE_PERIODIC_TELEMETRY_REPORT
 371:/home/adamczer/paparazzi/var/aircrafts/Quad_LisaMX/ap/generated/periodic_telemetry.h ****       else periodic_telemetry_err_report(TELEMETRY_PROCESS_Main, telemetry_mode_Main, TELEMETRY_MAI
 372:/home/adamczer/paparazzi/var/aircrafts/Quad_LisaMX/ap/generated/periodic_telemetry.h **** #endif
 373:/home/adamczer/paparazzi/var/aircrafts/Quad_LisaMX/ap/generated/periodic_telemetry.h ****     }
 374:/home/adamczer/paparazzi/var/aircrafts/Quad_LisaMX/ap/generated/periodic_telemetry.h ****   }
 375:/home/adamczer/paparazzi/var/aircrafts/Quad_LisaMX/ap/generated/periodic_telemetry.h ****   if (telemetry_mode_Main == TELEMETRY_MODE_Main_ppm) {
 1237              		.loc 6 375 0
 1238 06fe 2378     		ldrb	r3, [r4]	@ zero_extendqisi2
 1239 0700 012B     		cmp	r3, #1
 1240 0702 40F08880 		bne	.L95
 1241              	.LBB151:
 376:/home/adamczer/paparazzi/var/aircrafts/Quad_LisaMX/ap/generated/periodic_telemetry.h ****     static uint8_t i25 = 0; i25++; if (i25>=25) i25=0;
 1242              		.loc 6 376 0
 1243 0706 DFF8C4A0 		ldr	r10, .L775+64
 377:/home/adamczer/paparazzi/var/aircrafts/Quad_LisaMX/ap/generated/periodic_telemetry.h ****     static uint8_t i102 = 0; i102++; if (i102>=102) i102=0;
 1244              		.loc 6 377 0
 1245 070a DFF8C4B0 		ldr	fp, .L775+68
 376:/home/adamczer/paparazzi/var/aircrafts/Quad_LisaMX/ap/generated/periodic_telemetry.h ****     static uint8_t i25 = 0; i25++; if (i25>=25) i25=0;
 1246              		.loc 6 376 0
 1247 070e 9AF80030 		ldrb	r3, [r10]	@ zero_extendqisi2
 378:/home/adamczer/paparazzi/var/aircrafts/Quad_LisaMX/ap/generated/periodic_telemetry.h ****     static uint16_t i256 = 0; i256++; if (i256>=256) i256=0;
 1248              		.loc 6 378 0
 1249 0712 2C4A     		ldr	r2, .L775+56
 379:/home/adamczer/paparazzi/var/aircrafts/Quad_LisaMX/ap/generated/periodic_telemetry.h ****     static uint16_t i512 = 0; i512++; if (i512>=512) i512=0;
 1250              		.loc 6 379 0
 1251 0714 2C49     		ldr	r1, .L775+60
 376:/home/adamczer/paparazzi/var/aircrafts/Quad_LisaMX/ap/generated/periodic_telemetry.h ****     static uint8_t i102 = 0; i102++; if (i102>=102) i102=0;
 1252              		.loc 6 376 0
 1253 0716 0133     		adds	r3, r3, #1
 1254 0718 DBB2     		uxtb	r3, r3
 1255 071a 182B     		cmp	r3, #24
 1256 071c 88BF     		it	hi
 1257 071e 0023     		movhi	r3, #0
 1258 0720 8AF80030 		strb	r3, [r10]
 377:/home/adamczer/paparazzi/var/aircrafts/Quad_LisaMX/ap/generated/periodic_telemetry.h ****     static uint16_t i256 = 0; i256++; if (i256>=256) i256=0;
 1259              		.loc 6 377 0
 1260 0724 9BF80030 		ldrb	r3, [fp]	@ zero_extendqisi2
 1261 0728 0133     		adds	r3, r3, #1
 1262 072a DBB2     		uxtb	r3, r3
 1263 072c 652B     		cmp	r3, #101
 1264 072e 88BF     		it	hi
 1265 0730 0023     		movhi	r3, #0
 1266 0732 8BF80030 		strb	r3, [fp]
 378:/home/adamczer/paparazzi/var/aircrafts/Quad_LisaMX/ap/generated/periodic_telemetry.h ****     static uint16_t i512 = 0; i512++; if (i512>=512) i512=0;
 1267              		.loc 6 378 0
 1268 0736 1388     		ldrh	r3, [r2]
 1269 0738 0133     		adds	r3, r3, #1
 1270 073a 9BB2     		uxth	r3, r3
 1271 073c FF2B     		cmp	r3, #255
 1272 073e 88BF     		it	hi
 1273 0740 0023     		movhi	r3, #0
 1274 0742 1380     		strh	r3, [r2]	@ movhi
 1275              		.loc 6 379 0
 1276 0744 0B88     		ldrh	r3, [r1]
 1277 0746 0133     		adds	r3, r3, #1
 1278 0748 9BB2     		uxth	r3, r3
 1279 074a B3F5007F 		cmp	r3, #512
 1280 074e 28BF     		it	cs
 1281 0750 0023     		movcs	r3, #0
 1282 0752 0B80     		strh	r3, [r1]	@ movhi
 380:/home/adamczer/paparazzi/var/aircrafts/Quad_LisaMX/ap/generated/periodic_telemetry.h ****     if (i512 == 0) {
 1283              		.loc 6 380 0
 1284 0754 0B88     		ldrh	r3, [r1]
 1285 0756 4BB9     		cbnz	r3, .L104
 381:/home/adamczer/paparazzi/var/aircrafts/Quad_LisaMX/ap/generated/periodic_telemetry.h ****       if (telemetry_Main.msgs[TELEMETRY_MAIN_MSG_ROTORCRAFT_STATUS_ID].cb != NULL)
 1286              		.loc 6 381 0
 1287 0758 0C4B     		ldr	r3, .L775
 1288 075a 5B68     		ldr	r3, [r3, #4]
 1289 075c D3F88430 		ldr	r3, [r3, #132]
 1290 0760 23B1     		cbz	r3, .L104
 382:/home/adamczer/paparazzi/var/aircrafts/Quad_LisaMX/ap/generated/periodic_telemetry.h ****         telemetry_Main.msgs[TELEMETRY_MAIN_MSG_ROTORCRAFT_STATUS_ID].cb(trans, dev);
 1291              		.loc 6 382 0
 1292 0762 0B48     		ldr	r0, .L775+4
 1293              	.LVL119:
 1294 0764 0B49     		ldr	r1, .L775+8
 1295              	.LVL120:
 1296 0766 0592     		str	r2, [sp, #20]
 1297 0768 9847     		blx	r3
 1298              	.LVL121:
 1299 076a 059A     		ldr	r2, [sp, #20]
 1300              	.L104:
 383:/home/adamczer/paparazzi/var/aircrafts/Quad_LisaMX/ap/generated/periodic_telemetry.h **** #if USE_PERIODIC_TELEMETRY_REPORT
 384:/home/adamczer/paparazzi/var/aircrafts/Quad_LisaMX/ap/generated/periodic_telemetry.h ****       else periodic_telemetry_err_report(TELEMETRY_PROCESS_Main, telemetry_mode_Main, TELEMETRY_MAI
 385:/home/adamczer/paparazzi/var/aircrafts/Quad_LisaMX/ap/generated/periodic_telemetry.h **** #endif
 386:/home/adamczer/paparazzi/var/aircrafts/Quad_LisaMX/ap/generated/periodic_telemetry.h ****     }
 387:/home/adamczer/paparazzi/var/aircrafts/Quad_LisaMX/ap/generated/periodic_telemetry.h ****     if (i256 == 51) {
 1301              		.loc 6 387 0
 1302 076c 1388     		ldrh	r3, [r2]
 1303 076e 332B     		cmp	r3, #51
 1304 0770 04D1     		bne	.L105
 388:/home/adamczer/paparazzi/var/aircrafts/Quad_LisaMX/ap/generated/periodic_telemetry.h ****       if (telemetry_Main.msgs[TELEMETRY_MAIN_MSG_ROTORCRAFT_RADIO_CONTROL_ID].cb != NULL)
 1305              		.loc 6 388 0
 1306 0772 064B     		ldr	r3, .L775
 1307 0774 5B68     		ldr	r3, [r3, #4]
 1308 0776 D3F86032 		ldr	r3, [r3, #608]
 1309 077a 31E0     		b	.L750
 1310              	.L105:
 389:/home/adamczer/paparazzi/var/aircrafts/Quad_LisaMX/ap/generated/periodic_telemetry.h ****         telemetry_Main.msgs[TELEMETRY_MAIN_MSG_ROTORCRAFT_RADIO_CONTROL_ID].cb(trans, dev);
 390:/home/adamczer/paparazzi/var/aircrafts/Quad_LisaMX/ap/generated/periodic_telemetry.h **** #if USE_PERIODIC_TELEMETRY_REPORT
 391:/home/adamczer/paparazzi/var/aircrafts/Quad_LisaMX/ap/generated/periodic_telemetry.h ****       else periodic_telemetry_err_report(TELEMETRY_PROCESS_Main, telemetry_mode_Main, TELEMETRY_MAI
 392:/home/adamczer/paparazzi/var/aircrafts/Quad_LisaMX/ap/generated/periodic_telemetry.h **** #endif
 393:/home/adamczer/paparazzi/var/aircrafts/Quad_LisaMX/ap/generated/periodic_telemetry.h ****     }
 394:/home/adamczer/paparazzi/var/aircrafts/Quad_LisaMX/ap/generated/periodic_telemetry.h ****     else if (i256 == 102) {
 1311              		.loc 6 394 0
 1312 077c 662B     		cmp	r3, #102
 1313 077e 29D1     		bne	.L107
 395:/home/adamczer/paparazzi/var/aircrafts/Quad_LisaMX/ap/generated/periodic_telemetry.h ****       if (telemetry_Main.msgs[TELEMETRY_MAIN_MSG_RC_ID].cb != NULL)
 1314              		.loc 6 395 0
 1315 0780 024B     		ldr	r3, .L775
 1316 0782 5B68     		ldr	r3, [r3, #4]
 1317 0784 D3F8C038 		ldr	r3, [r3, #2240]
 1318 0788 2AE0     		b	.L750
 1319              	.L776:
 1320 078a 00BF     		.align	2
 1321              	.L775:
 1322 078c 00000000 		.word	telemetry_Main
 1323 0790 08010000 		.word	pprz_tp+264
 1324 0794 28010000 		.word	uart2+296
 1325 0798 00000000 		.word	.LANCHOR25
 1326 079c 00000000 		.word	.LANCHOR24
 1327 07a0 00000000 		.word	.LANCHOR23
 1328 07a4 00000000 		.word	.LANCHOR22
 1329 07a8 00000000 		.word	.LANCHOR21
 1330 07ac 00000000 		.word	.LANCHOR20
 1331 07b0 00000000 		.word	.LANCHOR19
 1332 07b4 00000000 		.word	.LANCHOR18
 1333 07b8 00000000 		.word	.LANCHOR17
 1334 07bc 00000000 		.word	.LANCHOR16
 1335 07c0 00000000 		.word	.LANCHOR15
 1336 07c4 00000000 		.word	.LANCHOR30
 1337 07c8 00000000 		.word	.LANCHOR31
 1338 07cc 00000000 		.word	.LANCHOR28
 1339 07d0 00000000 		.word	.LANCHOR29
 1340              	.L107:
 396:/home/adamczer/paparazzi/var/aircrafts/Quad_LisaMX/ap/generated/periodic_telemetry.h ****         telemetry_Main.msgs[TELEMETRY_MAIN_MSG_RC_ID].cb(trans, dev);
 397:/home/adamczer/paparazzi/var/aircrafts/Quad_LisaMX/ap/generated/periodic_telemetry.h **** #if USE_PERIODIC_TELEMETRY_REPORT
 398:/home/adamczer/paparazzi/var/aircrafts/Quad_LisaMX/ap/generated/periodic_telemetry.h ****       else periodic_telemetry_err_report(TELEMETRY_PROCESS_Main, telemetry_mode_Main, TELEMETRY_MAI
 399:/home/adamczer/paparazzi/var/aircrafts/Quad_LisaMX/ap/generated/periodic_telemetry.h **** #endif
 400:/home/adamczer/paparazzi/var/aircrafts/Quad_LisaMX/ap/generated/periodic_telemetry.h ****     }
 401:/home/adamczer/paparazzi/var/aircrafts/Quad_LisaMX/ap/generated/periodic_telemetry.h ****     else if (i256 == 153) {
 1341              		.loc 6 401 0
 1342 07d4 992B     		cmp	r3, #153
 1343 07d6 07D1     		bne	.L106
 402:/home/adamczer/paparazzi/var/aircrafts/Quad_LisaMX/ap/generated/periodic_telemetry.h ****       if (telemetry_Main.msgs[TELEMETRY_MAIN_MSG_PPM_ID].cb != NULL)
 1344              		.loc 6 402 0
 1345 07d8 824B     		ldr	r3, .L777
 1346 07da 5B68     		ldr	r3, [r3, #4]
 1347 07dc D3F81C32 		ldr	r3, [r3, #540]
 1348              	.L750:
 1349 07e0 13B1     		cbz	r3, .L106
 403:/home/adamczer/paparazzi/var/aircrafts/Quad_LisaMX/ap/generated/periodic_telemetry.h ****         telemetry_Main.msgs[TELEMETRY_MAIN_MSG_PPM_ID].cb(trans, dev);
 1350              		.loc 6 403 0
 1351 07e2 8148     		ldr	r0, .L777+4
 1352              	.LVL122:
 1353 07e4 8149     		ldr	r1, .L777+8
 1354              	.LVL123:
 1355 07e6 9847     		blx	r3
 1356              	.LVL124:
 1357              	.L106:
 404:/home/adamczer/paparazzi/var/aircrafts/Quad_LisaMX/ap/generated/periodic_telemetry.h **** #if USE_PERIODIC_TELEMETRY_REPORT
 405:/home/adamczer/paparazzi/var/aircrafts/Quad_LisaMX/ap/generated/periodic_telemetry.h ****       else periodic_telemetry_err_report(TELEMETRY_PROCESS_Main, telemetry_mode_Main, TELEMETRY_MAI
 406:/home/adamczer/paparazzi/var/aircrafts/Quad_LisaMX/ap/generated/periodic_telemetry.h **** #endif
 407:/home/adamczer/paparazzi/var/aircrafts/Quad_LisaMX/ap/generated/periodic_telemetry.h ****     }
 408:/home/adamczer/paparazzi/var/aircrafts/Quad_LisaMX/ap/generated/periodic_telemetry.h ****     if (i102 == 0) {
 1358              		.loc 6 408 0
 1359 07e8 9BF80030 		ldrb	r3, [fp]	@ zero_extendqisi2
 1360 07ec 3BB9     		cbnz	r3, .L108
 409:/home/adamczer/paparazzi/var/aircrafts/Quad_LisaMX/ap/generated/periodic_telemetry.h ****       if (telemetry_Main.msgs[TELEMETRY_MAIN_MSG_ACTUATORS_BEBOP_ID].cb != NULL)
 1361              		.loc 6 409 0
 1362 07ee 7D4B     		ldr	r3, .L777
 1363 07f0 5B68     		ldr	r3, [r3, #4]
 1364 07f2 D3F8BC3C 		ldr	r3, [r3, #3260]
 1365 07f6 13B1     		cbz	r3, .L108
 410:/home/adamczer/paparazzi/var/aircrafts/Quad_LisaMX/ap/generated/periodic_telemetry.h ****         telemetry_Main.msgs[TELEMETRY_MAIN_MSG_ACTUATORS_BEBOP_ID].cb(trans, dev);
 1366              		.loc 6 410 0
 1367 07f8 7B48     		ldr	r0, .L777+4
 1368              	.LVL125:
 1369 07fa 7C49     		ldr	r1, .L777+8
 1370              	.LVL126:
 1371 07fc 9847     		blx	r3
 1372              	.LVL127:
 1373              	.L108:
 411:/home/adamczer/paparazzi/var/aircrafts/Quad_LisaMX/ap/generated/periodic_telemetry.h **** #if USE_PERIODIC_TELEMETRY_REPORT
 412:/home/adamczer/paparazzi/var/aircrafts/Quad_LisaMX/ap/generated/periodic_telemetry.h ****       else periodic_telemetry_err_report(TELEMETRY_PROCESS_Main, telemetry_mode_Main, TELEMETRY_MAI
 413:/home/adamczer/paparazzi/var/aircrafts/Quad_LisaMX/ap/generated/periodic_telemetry.h **** #endif
 414:/home/adamczer/paparazzi/var/aircrafts/Quad_LisaMX/ap/generated/periodic_telemetry.h ****     }
 415:/home/adamczer/paparazzi/var/aircrafts/Quad_LisaMX/ap/generated/periodic_telemetry.h ****     if (i25 == 1) {
 1374              		.loc 6 415 0
 1375 07fe 9AF80030 		ldrb	r3, [r10]	@ zero_extendqisi2
 1376 0802 012B     		cmp	r3, #1
 1377 0804 07D1     		bne	.L95
 416:/home/adamczer/paparazzi/var/aircrafts/Quad_LisaMX/ap/generated/periodic_telemetry.h ****       if (telemetry_Main.msgs[TELEMETRY_MAIN_MSG_ROTORCRAFT_CMD_ID].cb != NULL)
 1378              		.loc 6 416 0
 1379 0806 774B     		ldr	r3, .L777
 1380 0808 5B68     		ldr	r3, [r3, #4]
 1381 080a D3F80439 		ldr	r3, [r3, #2308]
 1382 080e 13B1     		cbz	r3, .L95
 417:/home/adamczer/paparazzi/var/aircrafts/Quad_LisaMX/ap/generated/periodic_telemetry.h ****         telemetry_Main.msgs[TELEMETRY_MAIN_MSG_ROTORCRAFT_CMD_ID].cb(trans, dev);
 1383              		.loc 6 417 0
 1384 0810 7548     		ldr	r0, .L777+4
 1385              	.LVL128:
 1386 0812 7649     		ldr	r1, .L777+8
 1387              	.LVL129:
 1388 0814 9847     		blx	r3
 1389              	.LVL130:
 1390              	.L95:
 1391              	.LBE151:
 418:/home/adamczer/paparazzi/var/aircrafts/Quad_LisaMX/ap/generated/periodic_telemetry.h **** #if USE_PERIODIC_TELEMETRY_REPORT
 419:/home/adamczer/paparazzi/var/aircrafts/Quad_LisaMX/ap/generated/periodic_telemetry.h ****       else periodic_telemetry_err_report(TELEMETRY_PROCESS_Main, telemetry_mode_Main, TELEMETRY_MAI
 420:/home/adamczer/paparazzi/var/aircrafts/Quad_LisaMX/ap/generated/periodic_telemetry.h **** #endif
 421:/home/adamczer/paparazzi/var/aircrafts/Quad_LisaMX/ap/generated/periodic_telemetry.h ****     }
 422:/home/adamczer/paparazzi/var/aircrafts/Quad_LisaMX/ap/generated/periodic_telemetry.h ****   }
 423:/home/adamczer/paparazzi/var/aircrafts/Quad_LisaMX/ap/generated/periodic_telemetry.h ****   if (telemetry_mode_Main == TELEMETRY_MODE_Main_raw_sensors) {
 1392              		.loc 6 423 0
 1393 0816 2378     		ldrb	r3, [r4]	@ zero_extendqisi2
 1394 0818 022B     		cmp	r3, #2
 1395 081a 77D1     		bne	.L111
 1396              	.LBB152:
 424:/home/adamczer/paparazzi/var/aircrafts/Quad_LisaMX/ap/generated/periodic_telemetry.h ****     static uint8_t i25 = 0; i25++; if (i25>=25) i25=0;
 1397              		.loc 6 424 0
 1398 081c DFF8E8A1 		ldr	r10, .L777+36
 425:/home/adamczer/paparazzi/var/aircrafts/Quad_LisaMX/ap/generated/periodic_telemetry.h ****     static uint8_t i51 = 0; i51++; if (i51>=51) i51=0;
 1399              		.loc 6 425 0
 1400 0820 734A     		ldr	r2, .L777+12
 424:/home/adamczer/paparazzi/var/aircrafts/Quad_LisaMX/ap/generated/periodic_telemetry.h ****     static uint8_t i25 = 0; i25++; if (i25>=25) i25=0;
 1401              		.loc 6 424 0
 1402 0822 9AF80030 		ldrb	r3, [r10]	@ zero_extendqisi2
 426:/home/adamczer/paparazzi/var/aircrafts/Quad_LisaMX/ap/generated/periodic_telemetry.h ****     static uint16_t i256 = 0; i256++; if (i256>=256) i256=0;
 427:/home/adamczer/paparazzi/var/aircrafts/Quad_LisaMX/ap/generated/periodic_telemetry.h ****     static uint16_t i614 = 0; i614++; if (i614>=614) i614=0;
 1403              		.loc 6 427 0
 1404 0826 DFF8E4B1 		ldr	fp, .L777+40
 424:/home/adamczer/paparazzi/var/aircrafts/Quad_LisaMX/ap/generated/periodic_telemetry.h ****     static uint8_t i51 = 0; i51++; if (i51>=51) i51=0;
 1405              		.loc 6 424 0
 1406 082a 0133     		adds	r3, r3, #1
 1407 082c DBB2     		uxtb	r3, r3
 1408 082e 182B     		cmp	r3, #24
 1409 0830 88BF     		it	hi
 1410 0832 0023     		movhi	r3, #0
 1411 0834 8AF80030 		strb	r3, [r10]
 425:/home/adamczer/paparazzi/var/aircrafts/Quad_LisaMX/ap/generated/periodic_telemetry.h ****     static uint8_t i51 = 0; i51++; if (i51>=51) i51=0;
 1412              		.loc 6 425 0
 1413 0838 1378     		ldrb	r3, [r2]	@ zero_extendqisi2
 1414 083a 0133     		adds	r3, r3, #1
 1415 083c DBB2     		uxtb	r3, r3
 1416 083e 322B     		cmp	r3, #50
 1417 0840 88BF     		it	hi
 1418 0842 0023     		movhi	r3, #0
 1419 0844 1370     		strb	r3, [r2]
 426:/home/adamczer/paparazzi/var/aircrafts/Quad_LisaMX/ap/generated/periodic_telemetry.h ****     static uint16_t i256 = 0; i256++; if (i256>=256) i256=0;
 1420              		.loc 6 426 0
 1421 0846 6B4A     		ldr	r2, .L777+16
 1422 0848 1388     		ldrh	r3, [r2]
 1423 084a 0133     		adds	r3, r3, #1
 1424 084c 9BB2     		uxth	r3, r3
 1425 084e FF2B     		cmp	r3, #255
 1426 0850 88BF     		it	hi
 1427 0852 0023     		movhi	r3, #0
 1428 0854 1380     		strh	r3, [r2]	@ movhi
 1429              		.loc 6 427 0
 1430 0856 BBF80030 		ldrh	r3, [fp]
 1431 085a 0133     		adds	r3, r3, #1
 1432 085c 9BB2     		uxth	r3, r3
 1433 085e 40F26522 		movw	r2, #613
 1434 0862 9342     		cmp	r3, r2
 428:/home/adamczer/paparazzi/var/aircrafts/Quad_LisaMX/ap/generated/periodic_telemetry.h ****     static uint16_t i1075 = 0; i1075++; if (i1075>=1075) i1075=0;
 1435              		.loc 6 428 0
 1436 0864 644A     		ldr	r2, .L777+20
 427:/home/adamczer/paparazzi/var/aircrafts/Quad_LisaMX/ap/generated/periodic_telemetry.h ****     static uint16_t i1075 = 0; i1075++; if (i1075>=1075) i1075=0;
 1437              		.loc 6 427 0
 1438 0866 88BF     		it	hi
 1439 0868 0023     		movhi	r3, #0
 1440 086a ABF80030 		strh	r3, [fp]	@ movhi
 1441              		.loc 6 428 0
 1442 086e 1388     		ldrh	r3, [r2]
 1443 0870 0133     		adds	r3, r3, #1
 1444 0872 9BB2     		uxth	r3, r3
 1445 0874 40F23241 		movw	r1, #1074
 1446 0878 8B42     		cmp	r3, r1
 1447 087a 88BF     		it	hi
 1448 087c 0023     		movhi	r3, #0
 1449 087e 1380     		strh	r3, [r2]	@ movhi
 429:/home/adamczer/paparazzi/var/aircrafts/Quad_LisaMX/ap/generated/periodic_telemetry.h ****     if (i1075 == 0) {
 1450              		.loc 6 429 0
 1451 0880 1388     		ldrh	r3, [r2]
 1452 0882 3BB9     		cbnz	r3, .L122
 430:/home/adamczer/paparazzi/var/aircrafts/Quad_LisaMX/ap/generated/periodic_telemetry.h ****       if (telemetry_Main.msgs[TELEMETRY_MAIN_MSG_ALIVE_ID].cb != NULL)
 1453              		.loc 6 430 0
 1454 0884 574B     		ldr	r3, .L777
 1455 0886 5B68     		ldr	r3, [r3, #4]
 1456 0888 D3F8F03B 		ldr	r3, [r3, #3056]
 1457 088c 13B1     		cbz	r3, .L122
 431:/home/adamczer/paparazzi/var/aircrafts/Quad_LisaMX/ap/generated/periodic_telemetry.h ****         telemetry_Main.msgs[TELEMETRY_MAIN_MSG_ALIVE_ID].cb(trans, dev);
 1458              		.loc 6 431 0
 1459 088e 5648     		ldr	r0, .L777+4
 1460              	.LVL131:
 1461 0890 5649     		ldr	r1, .L777+8
 1462              	.LVL132:
 1463 0892 9847     		blx	r3
 1464              	.LVL133:
 1465              	.L122:
 432:/home/adamczer/paparazzi/var/aircrafts/Quad_LisaMX/ap/generated/periodic_telemetry.h **** #if USE_PERIODIC_TELEMETRY_REPORT
 433:/home/adamczer/paparazzi/var/aircrafts/Quad_LisaMX/ap/generated/periodic_telemetry.h ****       else periodic_telemetry_err_report(TELEMETRY_PROCESS_Main, telemetry_mode_Main, TELEMETRY_MAI
 434:/home/adamczer/paparazzi/var/aircrafts/Quad_LisaMX/ap/generated/periodic_telemetry.h **** #endif
 435:/home/adamczer/paparazzi/var/aircrafts/Quad_LisaMX/ap/generated/periodic_telemetry.h ****     }
 436:/home/adamczer/paparazzi/var/aircrafts/Quad_LisaMX/ap/generated/periodic_telemetry.h ****     if (i614 == 51) {
 1466              		.loc 6 436 0
 1467 0894 BBF80030 		ldrh	r3, [fp]
 1468 0898 332B     		cmp	r3, #51
 1469 089a 07D1     		bne	.L123
 437:/home/adamczer/paparazzi/var/aircrafts/Quad_LisaMX/ap/generated/periodic_telemetry.h ****       if (telemetry_Main.msgs[TELEMETRY_MAIN_MSG_ROTORCRAFT_STATUS_ID].cb != NULL)
 1470              		.loc 6 437 0
 1471 089c 514B     		ldr	r3, .L777
 1472 089e 5B68     		ldr	r3, [r3, #4]
 1473 08a0 D3F88430 		ldr	r3, [r3, #132]
 1474 08a4 13B1     		cbz	r3, .L123
 438:/home/adamczer/paparazzi/var/aircrafts/Quad_LisaMX/ap/generated/periodic_telemetry.h ****         telemetry_Main.msgs[TELEMETRY_MAIN_MSG_ROTORCRAFT_STATUS_ID].cb(trans, dev);
 1475              		.loc 6 438 0
 1476 08a6 5048     		ldr	r0, .L777+4
 1477              	.LVL134:
 1478 08a8 5049     		ldr	r1, .L777+8
 1479              	.LVL135:
 1480 08aa 9847     		blx	r3
 1481              	.LVL136:
 1482              	.L123:
 439:/home/adamczer/paparazzi/var/aircrafts/Quad_LisaMX/ap/generated/periodic_telemetry.h **** #if USE_PERIODIC_TELEMETRY_REPORT
 440:/home/adamczer/paparazzi/var/aircrafts/Quad_LisaMX/ap/generated/periodic_telemetry.h ****       else periodic_telemetry_err_report(TELEMETRY_PROCESS_Main, telemetry_mode_Main, TELEMETRY_MAI
 441:/home/adamczer/paparazzi/var/aircrafts/Quad_LisaMX/ap/generated/periodic_telemetry.h **** #endif
 442:/home/adamczer/paparazzi/var/aircrafts/Quad_LisaMX/ap/generated/periodic_telemetry.h ****     }
 443:/home/adamczer/paparazzi/var/aircrafts/Quad_LisaMX/ap/generated/periodic_telemetry.h ****     if (i256 == 102) {
 1483              		.loc 6 443 0
 1484 08ac 514B     		ldr	r3, .L777+16
 1485 08ae 1B88     		ldrh	r3, [r3]
 1486 08b0 662B     		cmp	r3, #102
 1487 08b2 07D1     		bne	.L124
 444:/home/adamczer/paparazzi/var/aircrafts/Quad_LisaMX/ap/generated/periodic_telemetry.h ****       if (telemetry_Main.msgs[TELEMETRY_MAIN_MSG_DL_VALUE_ID].cb != NULL)
 1488              		.loc 6 444 0
 1489 08b4 4B4B     		ldr	r3, .L777
 1490 08b6 5B68     		ldr	r3, [r3, #4]
 1491 08b8 D3F8783C 		ldr	r3, [r3, #3192]
 1492 08bc 13B1     		cbz	r3, .L124
 445:/home/adamczer/paparazzi/var/aircrafts/Quad_LisaMX/ap/generated/periodic_telemetry.h ****         telemetry_Main.msgs[TELEMETRY_MAIN_MSG_DL_VALUE_ID].cb(trans, dev);
 1493              		.loc 6 445 0
 1494 08be 4A48     		ldr	r0, .L777+4
 1495              	.LVL137:
 1496 08c0 4A49     		ldr	r1, .L777+8
 1497              	.LVL138:
 1498 08c2 9847     		blx	r3
 1499              	.LVL139:
 1500              	.L124:
 446:/home/adamczer/paparazzi/var/aircrafts/Quad_LisaMX/ap/generated/periodic_telemetry.h **** #if USE_PERIODIC_TELEMETRY_REPORT
 447:/home/adamczer/paparazzi/var/aircrafts/Quad_LisaMX/ap/generated/periodic_telemetry.h ****       else periodic_telemetry_err_report(TELEMETRY_PROCESS_Main, telemetry_mode_Main, TELEMETRY_MAI
 448:/home/adamczer/paparazzi/var/aircrafts/Quad_LisaMX/ap/generated/periodic_telemetry.h **** #endif
 449:/home/adamczer/paparazzi/var/aircrafts/Quad_LisaMX/ap/generated/periodic_telemetry.h ****     }
 450:/home/adamczer/paparazzi/var/aircrafts/Quad_LisaMX/ap/generated/periodic_telemetry.h ****     if (i51 == 0) {
 1501              		.loc 6 450 0
 1502 08c4 4A4B     		ldr	r3, .L777+12
 1503 08c6 1B78     		ldrb	r3, [r3]	@ zero_extendqisi2
 1504 08c8 3BB9     		cbnz	r3, .L125
 451:/home/adamczer/paparazzi/var/aircrafts/Quad_LisaMX/ap/generated/periodic_telemetry.h ****       if (telemetry_Main.msgs[TELEMETRY_MAIN_MSG_BARO_RAW_ID].cb != NULL)
 1505              		.loc 6 451 0
 1506 08ca 464B     		ldr	r3, .L777
 1507 08cc 5B68     		ldr	r3, [r3, #4]
 1508 08ce D3F84C35 		ldr	r3, [r3, #1356]
 1509 08d2 13B1     		cbz	r3, .L125
 452:/home/adamczer/paparazzi/var/aircrafts/Quad_LisaMX/ap/generated/periodic_telemetry.h ****         telemetry_Main.msgs[TELEMETRY_MAIN_MSG_BARO_RAW_ID].cb(trans, dev);
 1510              		.loc 6 452 0
 1511 08d4 4448     		ldr	r0, .L777+4
 1512              	.LVL140:
 1513 08d6 4549     		ldr	r1, .L777+8
 1514              	.LVL141:
 1515 08d8 9847     		blx	r3
 1516              	.LVL142:
 1517              	.L125:
 453:/home/adamczer/paparazzi/var/aircrafts/Quad_LisaMX/ap/generated/periodic_telemetry.h **** #if USE_PERIODIC_TELEMETRY_REPORT
 454:/home/adamczer/paparazzi/var/aircrafts/Quad_LisaMX/ap/generated/periodic_telemetry.h ****       else periodic_telemetry_err_report(TELEMETRY_PROCESS_Main, telemetry_mode_Main, TELEMETRY_MAI
 455:/home/adamczer/paparazzi/var/aircrafts/Quad_LisaMX/ap/generated/periodic_telemetry.h **** #endif
 456:/home/adamczer/paparazzi/var/aircrafts/Quad_LisaMX/ap/generated/periodic_telemetry.h ****     }
 457:/home/adamczer/paparazzi/var/aircrafts/Quad_LisaMX/ap/generated/periodic_telemetry.h ****     if (i25 == 1) {
 1518              		.loc 6 457 0
 1519 08da 9AF80030 		ldrb	r3, [r10]	@ zero_extendqisi2
 1520 08de 012B     		cmp	r3, #1
 1521 08e0 04D1     		bne	.L126
 458:/home/adamczer/paparazzi/var/aircrafts/Quad_LisaMX/ap/generated/periodic_telemetry.h ****       if (telemetry_Main.msgs[TELEMETRY_MAIN_MSG_IMU_MAG_RAW_ID].cb != NULL)
 1522              		.loc 6 458 0
 1523 08e2 404B     		ldr	r3, .L777
 1524 08e4 5B68     		ldr	r3, [r3, #4]
 1525 08e6 D3F8AC3B 		ldr	r3, [r3, #2988]
 1526 08ea 0BE0     		b	.L753
 1527              	.L126:
 459:/home/adamczer/paparazzi/var/aircrafts/Quad_LisaMX/ap/generated/periodic_telemetry.h ****         telemetry_Main.msgs[TELEMETRY_MAIN_MSG_IMU_MAG_RAW_ID].cb(trans, dev);
 460:/home/adamczer/paparazzi/var/aircrafts/Quad_LisaMX/ap/generated/periodic_telemetry.h **** #if USE_PERIODIC_TELEMETRY_REPORT
 461:/home/adamczer/paparazzi/var/aircrafts/Quad_LisaMX/ap/generated/periodic_telemetry.h ****       else periodic_telemetry_err_report(TELEMETRY_PROCESS_Main, telemetry_mode_Main, TELEMETRY_MAI
 462:/home/adamczer/paparazzi/var/aircrafts/Quad_LisaMX/ap/generated/periodic_telemetry.h **** #endif
 463:/home/adamczer/paparazzi/var/aircrafts/Quad_LisaMX/ap/generated/periodic_telemetry.h ****     }
 464:/home/adamczer/paparazzi/var/aircrafts/Quad_LisaMX/ap/generated/periodic_telemetry.h ****     else if (i25 == 2) {
 1528              		.loc 6 464 0
 1529 08ec 022B     		cmp	r3, #2
 1530 08ee 04D1     		bne	.L128
 465:/home/adamczer/paparazzi/var/aircrafts/Quad_LisaMX/ap/generated/periodic_telemetry.h ****       if (telemetry_Main.msgs[TELEMETRY_MAIN_MSG_IMU_GYRO_RAW_ID].cb != NULL)
 1531              		.loc 6 465 0
 1532 08f0 3C4B     		ldr	r3, .L777
 1533 08f2 5B68     		ldr	r3, [r3, #4]
 1534 08f4 D3F8583A 		ldr	r3, [r3, #2648]
 1535 08f8 04E0     		b	.L753
 1536              	.L128:
 466:/home/adamczer/paparazzi/var/aircrafts/Quad_LisaMX/ap/generated/periodic_telemetry.h ****         telemetry_Main.msgs[TELEMETRY_MAIN_MSG_IMU_GYRO_RAW_ID].cb(trans, dev);
 467:/home/adamczer/paparazzi/var/aircrafts/Quad_LisaMX/ap/generated/periodic_telemetry.h **** #if USE_PERIODIC_TELEMETRY_REPORT
 468:/home/adamczer/paparazzi/var/aircrafts/Quad_LisaMX/ap/generated/periodic_telemetry.h ****       else periodic_telemetry_err_report(TELEMETRY_PROCESS_Main, telemetry_mode_Main, TELEMETRY_MAI
 469:/home/adamczer/paparazzi/var/aircrafts/Quad_LisaMX/ap/generated/periodic_telemetry.h **** #endif
 470:/home/adamczer/paparazzi/var/aircrafts/Quad_LisaMX/ap/generated/periodic_telemetry.h ****     }
 471:/home/adamczer/paparazzi/var/aircrafts/Quad_LisaMX/ap/generated/periodic_telemetry.h ****     else if (i25 == 3) {
 1537              		.loc 6 471 0
 1538 08fa 032B     		cmp	r3, #3
 1539 08fc 06D1     		bne	.L111
 472:/home/adamczer/paparazzi/var/aircrafts/Quad_LisaMX/ap/generated/periodic_telemetry.h ****       if (telemetry_Main.msgs[TELEMETRY_MAIN_MSG_IMU_ACCEL_RAW_ID].cb != NULL)
 1540              		.loc 6 472 0
 1541 08fe 394B     		ldr	r3, .L777
 1542 0900 5B68     		ldr	r3, [r3, #4]
 1543 0902 1B6C     		ldr	r3, [r3, #64]
 1544              	.L753:
 1545 0904 13B1     		cbz	r3, .L111
 473:/home/adamczer/paparazzi/var/aircrafts/Quad_LisaMX/ap/generated/periodic_telemetry.h ****         telemetry_Main.msgs[TELEMETRY_MAIN_MSG_IMU_ACCEL_RAW_ID].cb(trans, dev);
 1546              		.loc 6 473 0
 1547 0906 3848     		ldr	r0, .L777+4
 1548              	.LVL143:
 1549 0908 3849     		ldr	r1, .L777+8
 1550              	.LVL144:
 1551 090a 9847     		blx	r3
 1552              	.LVL145:
 1553              	.L111:
 1554              	.LBE152:
 474:/home/adamczer/paparazzi/var/aircrafts/Quad_LisaMX/ap/generated/periodic_telemetry.h **** #if USE_PERIODIC_TELEMETRY_REPORT
 475:/home/adamczer/paparazzi/var/aircrafts/Quad_LisaMX/ap/generated/periodic_telemetry.h ****       else periodic_telemetry_err_report(TELEMETRY_PROCESS_Main, telemetry_mode_Main, TELEMETRY_MAI
 476:/home/adamczer/paparazzi/var/aircrafts/Quad_LisaMX/ap/generated/periodic_telemetry.h **** #endif
 477:/home/adamczer/paparazzi/var/aircrafts/Quad_LisaMX/ap/generated/periodic_telemetry.h ****     }
 478:/home/adamczer/paparazzi/var/aircrafts/Quad_LisaMX/ap/generated/periodic_telemetry.h ****   }
 479:/home/adamczer/paparazzi/var/aircrafts/Quad_LisaMX/ap/generated/periodic_telemetry.h ****   if (telemetry_mode_Main == TELEMETRY_MODE_Main_scaled_sensors) {
 1555              		.loc 6 479 0
 1556 090c 2378     		ldrb	r3, [r4]	@ zero_extendqisi2
 1557 090e 032B     		cmp	r3, #3
 1558 0910 40F08C80 		bne	.L130
 1559              	.LBB153:
 480:/home/adamczer/paparazzi/var/aircrafts/Quad_LisaMX/ap/generated/periodic_telemetry.h ****     static uint8_t i38 = 0; i38++; if (i38>=38) i38=0;
 1560              		.loc 6 480 0
 1561 0914 DFF8F8A0 		ldr	r10, .L777+44
 481:/home/adamczer/paparazzi/var/aircrafts/Quad_LisaMX/ap/generated/periodic_telemetry.h ****     static uint8_t i51 = 0; i51++; if (i51>=51) i51=0;
 1562              		.loc 6 481 0
 1563 0918 384A     		ldr	r2, .L777+24
 480:/home/adamczer/paparazzi/var/aircrafts/Quad_LisaMX/ap/generated/periodic_telemetry.h ****     static uint8_t i38 = 0; i38++; if (i38>=38) i38=0;
 1564              		.loc 6 480 0
 1565 091a 9AF80030 		ldrb	r3, [r10]	@ zero_extendqisi2
 482:/home/adamczer/paparazzi/var/aircrafts/Quad_LisaMX/ap/generated/periodic_telemetry.h ****     static uint16_t i256 = 0; i256++; if (i256>=256) i256=0;
 483:/home/adamczer/paparazzi/var/aircrafts/Quad_LisaMX/ap/generated/periodic_telemetry.h ****     static uint16_t i614 = 0; i614++; if (i614>=614) i614=0;
 1566              		.loc 6 483 0
 1567 091e DFF8F4B0 		ldr	fp, .L777+48
 480:/home/adamczer/paparazzi/var/aircrafts/Quad_LisaMX/ap/generated/periodic_telemetry.h ****     static uint8_t i51 = 0; i51++; if (i51>=51) i51=0;
 1568              		.loc 6 480 0
 1569 0922 0133     		adds	r3, r3, #1
 1570 0924 DBB2     		uxtb	r3, r3
 1571 0926 252B     		cmp	r3, #37
 1572 0928 88BF     		it	hi
 1573 092a 0023     		movhi	r3, #0
 1574 092c 8AF80030 		strb	r3, [r10]
 481:/home/adamczer/paparazzi/var/aircrafts/Quad_LisaMX/ap/generated/periodic_telemetry.h ****     static uint8_t i51 = 0; i51++; if (i51>=51) i51=0;
 1575              		.loc 6 481 0
 1576 0930 1378     		ldrb	r3, [r2]	@ zero_extendqisi2
 1577 0932 0133     		adds	r3, r3, #1
 1578 0934 DBB2     		uxtb	r3, r3
 1579 0936 322B     		cmp	r3, #50
 1580 0938 88BF     		it	hi
 1581 093a 0023     		movhi	r3, #0
 1582 093c 1370     		strb	r3, [r2]
 482:/home/adamczer/paparazzi/var/aircrafts/Quad_LisaMX/ap/generated/periodic_telemetry.h ****     static uint16_t i256 = 0; i256++; if (i256>=256) i256=0;
 1583              		.loc 6 482 0
 1584 093e 304A     		ldr	r2, .L777+28
 1585 0940 1388     		ldrh	r3, [r2]
 1586 0942 0133     		adds	r3, r3, #1
 1587 0944 9BB2     		uxth	r3, r3
 1588 0946 FF2B     		cmp	r3, #255
 1589 0948 88BF     		it	hi
 1590 094a 0023     		movhi	r3, #0
 1591 094c 1380     		strh	r3, [r2]	@ movhi
 1592              		.loc 6 483 0
 1593 094e BBF80030 		ldrh	r3, [fp]
 1594 0952 0133     		adds	r3, r3, #1
 1595 0954 9BB2     		uxth	r3, r3
 1596 0956 40F26522 		movw	r2, #613
 1597 095a 9342     		cmp	r3, r2
 484:/home/adamczer/paparazzi/var/aircrafts/Quad_LisaMX/ap/generated/periodic_telemetry.h ****     static uint16_t i1075 = 0; i1075++; if (i1075>=1075) i1075=0;
 1598              		.loc 6 484 0
 1599 095c 294A     		ldr	r2, .L777+32
 483:/home/adamczer/paparazzi/var/aircrafts/Quad_LisaMX/ap/generated/periodic_telemetry.h ****     static uint16_t i1075 = 0; i1075++; if (i1075>=1075) i1075=0;
 1600              		.loc 6 483 0
 1601 095e 88BF     		it	hi
 1602 0960 0023     		movhi	r3, #0
 1603 0962 ABF80030 		strh	r3, [fp]	@ movhi
 1604              		.loc 6 484 0
 1605 0966 1388     		ldrh	r3, [r2]
 1606 0968 0133     		adds	r3, r3, #1
 1607 096a 9BB2     		uxth	r3, r3
 1608 096c 40F23241 		movw	r1, #1074
 1609 0970 8B42     		cmp	r3, r1
 1610 0972 88BF     		it	hi
 1611 0974 0023     		movhi	r3, #0
 1612 0976 1380     		strh	r3, [r2]	@ movhi
 485:/home/adamczer/paparazzi/var/aircrafts/Quad_LisaMX/ap/generated/periodic_telemetry.h ****     if (i1075 == 0) {
 1613              		.loc 6 485 0
 1614 0978 1388     		ldrh	r3, [r2]
 1615 097a 3BB9     		cbnz	r3, .L141
 486:/home/adamczer/paparazzi/var/aircrafts/Quad_LisaMX/ap/generated/periodic_telemetry.h ****       if (telemetry_Main.msgs[TELEMETRY_MAIN_MSG_ALIVE_ID].cb != NULL)
 1616              		.loc 6 486 0
 1617 097c 194B     		ldr	r3, .L777
 1618 097e 5B68     		ldr	r3, [r3, #4]
 1619 0980 D3F8F03B 		ldr	r3, [r3, #3056]
 1620 0984 13B1     		cbz	r3, .L141
 487:/home/adamczer/paparazzi/var/aircrafts/Quad_LisaMX/ap/generated/periodic_telemetry.h ****         telemetry_Main.msgs[TELEMETRY_MAIN_MSG_ALIVE_ID].cb(trans, dev);
 1621              		.loc 6 487 0
 1622 0986 1848     		ldr	r0, .L777+4
 1623              	.LVL146:
 1624 0988 1849     		ldr	r1, .L777+8
 1625              	.LVL147:
 1626 098a 9847     		blx	r3
 1627              	.LVL148:
 1628              	.L141:
 488:/home/adamczer/paparazzi/var/aircrafts/Quad_LisaMX/ap/generated/periodic_telemetry.h **** #if USE_PERIODIC_TELEMETRY_REPORT
 489:/home/adamczer/paparazzi/var/aircrafts/Quad_LisaMX/ap/generated/periodic_telemetry.h ****       else periodic_telemetry_err_report(TELEMETRY_PROCESS_Main, telemetry_mode_Main, TELEMETRY_MAI
 490:/home/adamczer/paparazzi/var/aircrafts/Quad_LisaMX/ap/generated/periodic_telemetry.h **** #endif
 491:/home/adamczer/paparazzi/var/aircrafts/Quad_LisaMX/ap/generated/periodic_telemetry.h ****     }
 492:/home/adamczer/paparazzi/var/aircrafts/Quad_LisaMX/ap/generated/periodic_telemetry.h ****     if (i614 == 51) {
 1629              		.loc 6 492 0
 1630 098c BBF80030 		ldrh	r3, [fp]
 1631 0990 332B     		cmp	r3, #51
 1632 0992 07D1     		bne	.L142
 493:/home/adamczer/paparazzi/var/aircrafts/Quad_LisaMX/ap/generated/periodic_telemetry.h ****       if (telemetry_Main.msgs[TELEMETRY_MAIN_MSG_ROTORCRAFT_STATUS_ID].cb != NULL)
 1633              		.loc 6 493 0
 1634 0994 134B     		ldr	r3, .L777
 1635 0996 5B68     		ldr	r3, [r3, #4]
 1636 0998 D3F88430 		ldr	r3, [r3, #132]
 1637 099c 13B1     		cbz	r3, .L142
 494:/home/adamczer/paparazzi/var/aircrafts/Quad_LisaMX/ap/generated/periodic_telemetry.h ****         telemetry_Main.msgs[TELEMETRY_MAIN_MSG_ROTORCRAFT_STATUS_ID].cb(trans, dev);
 1638              		.loc 6 494 0
 1639 099e 1248     		ldr	r0, .L777+4
 1640              	.LVL149:
 1641 09a0 1249     		ldr	r1, .L777+8
 1642              	.LVL150:
 1643 09a2 9847     		blx	r3
 1644              	.LVL151:
 1645              	.L142:
 495:/home/adamczer/paparazzi/var/aircrafts/Quad_LisaMX/ap/generated/periodic_telemetry.h **** #if USE_PERIODIC_TELEMETRY_REPORT
 496:/home/adamczer/paparazzi/var/aircrafts/Quad_LisaMX/ap/generated/periodic_telemetry.h ****       else periodic_telemetry_err_report(TELEMETRY_PROCESS_Main, telemetry_mode_Main, TELEMETRY_MAI
 497:/home/adamczer/paparazzi/var/aircrafts/Quad_LisaMX/ap/generated/periodic_telemetry.h **** #endif
 498:/home/adamczer/paparazzi/var/aircrafts/Quad_LisaMX/ap/generated/periodic_telemetry.h ****     }
 499:/home/adamczer/paparazzi/var/aircrafts/Quad_LisaMX/ap/generated/periodic_telemetry.h ****     if (i256 == 102) {
 1646              		.loc 6 499 0
 1647 09a4 164B     		ldr	r3, .L777+28
 1648 09a6 1B88     		ldrh	r3, [r3]
 1649 09a8 662B     		cmp	r3, #102
 1650 09aa 07D1     		bne	.L143
 500:/home/adamczer/paparazzi/var/aircrafts/Quad_LisaMX/ap/generated/periodic_telemetry.h ****       if (telemetry_Main.msgs[TELEMETRY_MAIN_MSG_DL_VALUE_ID].cb != NULL)
 1651              		.loc 6 500 0
 1652 09ac 0D4B     		ldr	r3, .L777
 1653 09ae 5B68     		ldr	r3, [r3, #4]
 1654 09b0 D3F8783C 		ldr	r3, [r3, #3192]
 1655 09b4 13B1     		cbz	r3, .L143
 501:/home/adamczer/paparazzi/var/aircrafts/Quad_LisaMX/ap/generated/periodic_telemetry.h ****         telemetry_Main.msgs[TELEMETRY_MAIN_MSG_DL_VALUE_ID].cb(trans, dev);
 1656              		.loc 6 501 0
 1657 09b6 0C48     		ldr	r0, .L777+4
 1658              	.LVL152:
 1659 09b8 0C49     		ldr	r1, .L777+8
 1660              	.LVL153:
 1661 09ba 9847     		blx	r3
 1662              	.LVL154:
 1663              	.L143:
 502:/home/adamczer/paparazzi/var/aircrafts/Quad_LisaMX/ap/generated/periodic_telemetry.h **** #if USE_PERIODIC_TELEMETRY_REPORT
 503:/home/adamczer/paparazzi/var/aircrafts/Quad_LisaMX/ap/generated/periodic_telemetry.h ****       else periodic_telemetry_err_report(TELEMETRY_PROCESS_Main, telemetry_mode_Main, TELEMETRY_MAI
 504:/home/adamczer/paparazzi/var/aircrafts/Quad_LisaMX/ap/generated/periodic_telemetry.h **** #endif
 505:/home/adamczer/paparazzi/var/aircrafts/Quad_LisaMX/ap/generated/periodic_telemetry.h ****     }
 506:/home/adamczer/paparazzi/var/aircrafts/Quad_LisaMX/ap/generated/periodic_telemetry.h ****     if (i51 == 0) {
 1664              		.loc 6 506 0
 1665 09bc 0F4B     		ldr	r3, .L777+24
 1666 09be 1B78     		ldrb	r3, [r3]	@ zero_extendqisi2
 1667 09c0 3BB9     		cbnz	r3, .L144
 507:/home/adamczer/paparazzi/var/aircrafts/Quad_LisaMX/ap/generated/periodic_telemetry.h ****       if (telemetry_Main.msgs[TELEMETRY_MAIN_MSG_IMU_MAG_SCALED_ID].cb != NULL)
 1668              		.loc 6 507 0
 1669 09c2 084B     		ldr	r3, .L777
 1670 09c4 5B68     		ldr	r3, [r3, #4]
 1671 09c6 D3F8F437 		ldr	r3, [r3, #2036]
 1672 09ca 13B1     		cbz	r3, .L144
 508:/home/adamczer/paparazzi/var/aircrafts/Quad_LisaMX/ap/generated/periodic_telemetry.h ****         telemetry_Main.msgs[TELEMETRY_MAIN_MSG_IMU_MAG_SCALED_ID].cb(trans, dev);
 1673              		.loc 6 508 0
 1674 09cc 0648     		ldr	r0, .L777+4
 1675              	.LVL155:
 1676 09ce 0749     		ldr	r1, .L777+8
 1677              	.LVL156:
 1678 09d0 9847     		blx	r3
 1679              	.LVL157:
 1680              	.L144:
 509:/home/adamczer/paparazzi/var/aircrafts/Quad_LisaMX/ap/generated/periodic_telemetry.h **** #if USE_PERIODIC_TELEMETRY_REPORT
 510:/home/adamczer/paparazzi/var/aircrafts/Quad_LisaMX/ap/generated/periodic_telemetry.h ****       else periodic_telemetry_err_report(TELEMETRY_PROCESS_Main, telemetry_mode_Main, TELEMETRY_MAI
 511:/home/adamczer/paparazzi/var/aircrafts/Quad_LisaMX/ap/generated/periodic_telemetry.h **** #endif
 512:/home/adamczer/paparazzi/var/aircrafts/Quad_LisaMX/ap/generated/periodic_telemetry.h ****     }
 513:/home/adamczer/paparazzi/var/aircrafts/Quad_LisaMX/ap/generated/periodic_telemetry.h ****     if (i38 == 13) {
 1681              		.loc 6 513 0
 1682 09d2 9AF80030 		ldrb	r3, [r10]	@ zero_extendqisi2
 1683 09d6 0D2B     		cmp	r3, #13
 1684 09d8 1ED1     		bne	.L145
 514:/home/adamczer/paparazzi/var/aircrafts/Quad_LisaMX/ap/generated/periodic_telemetry.h ****       if (telemetry_Main.msgs[TELEMETRY_MAIN_MSG_IMU_ACCEL_SCALED_ID].cb != NULL)
 1685              		.loc 6 514 0
 1686 09da 024B     		ldr	r3, .L777
 1687 09dc 5B68     		ldr	r3, [r3, #4]
 1688 09de D3F8D831 		ldr	r3, [r3, #472]
 1689 09e2 1FE0     		b	.L756
 1690              	.L778:
 1691              		.align	2
 1692              	.L777:
 1693 09e4 00000000 		.word	telemetry_Main
 1694 09e8 08010000 		.word	pprz_tp+264
 1695 09ec 28010000 		.word	uart2+296
 1696 09f0 00000000 		.word	.LANCHOR33
 1697 09f4 00000000 		.word	.LANCHOR34
 1698 09f8 00000000 		.word	.LANCHOR36
 1699 09fc 00000000 		.word	.LANCHOR38
 1700 0a00 00000000 		.word	.LANCHOR39
 1701 0a04 00000000 		.word	.LANCHOR41
 1702 0a08 00000000 		.word	.LANCHOR32
 1703 0a0c 00000000 		.word	.LANCHOR35
 1704 0a10 00000000 		.word	.LANCHOR37
 1705 0a14 00000000 		.word	.LANCHOR40
 1706              	.L145:
 515:/home/adamczer/paparazzi/var/aircrafts/Quad_LisaMX/ap/generated/periodic_telemetry.h ****         telemetry_Main.msgs[TELEMETRY_MAIN_MSG_IMU_ACCEL_SCALED_ID].cb(trans, dev);
 516:/home/adamczer/paparazzi/var/aircrafts/Quad_LisaMX/ap/generated/periodic_telemetry.h **** #if USE_PERIODIC_TELEMETRY_REPORT
 517:/home/adamczer/paparazzi/var/aircrafts/Quad_LisaMX/ap/generated/periodic_telemetry.h ****       else periodic_telemetry_err_report(TELEMETRY_PROCESS_Main, telemetry_mode_Main, TELEMETRY_MAI
 518:/home/adamczer/paparazzi/var/aircrafts/Quad_LisaMX/ap/generated/periodic_telemetry.h **** #endif
 519:/home/adamczer/paparazzi/var/aircrafts/Quad_LisaMX/ap/generated/periodic_telemetry.h ****     }
 520:/home/adamczer/paparazzi/var/aircrafts/Quad_LisaMX/ap/generated/periodic_telemetry.h ****     else if (i38 == 26) {
 1707              		.loc 6 520 0
 1708 0a18 1A2B     		cmp	r3, #26
 1709 0a1a 07D1     		bne	.L130
 521:/home/adamczer/paparazzi/var/aircrafts/Quad_LisaMX/ap/generated/periodic_telemetry.h ****       if (telemetry_Main.msgs[TELEMETRY_MAIN_MSG_IMU_GYRO_SCALED_ID].cb != NULL)
 1710              		.loc 6 521 0
 1711 0a1c 484B     		ldr	r3, .L779
 1712 0a1e 5B68     		ldr	r3, [r3, #4]
 1713 0a20 D3F8683B 		ldr	r3, [r3, #2920]
 1714              	.L756:
 1715 0a24 13B1     		cbz	r3, .L130
 522:/home/adamczer/paparazzi/var/aircrafts/Quad_LisaMX/ap/generated/periodic_telemetry.h ****         telemetry_Main.msgs[TELEMETRY_MAIN_MSG_IMU_GYRO_SCALED_ID].cb(trans, dev);
 1716              		.loc 6 522 0
 1717 0a26 4748     		ldr	r0, .L779+4
 1718              	.LVL158:
 1719 0a28 4749     		ldr	r1, .L779+8
 1720              	.LVL159:
 1721 0a2a 9847     		blx	r3
 1722              	.LVL160:
 1723              	.L130:
 1724              	.LBE153:
 523:/home/adamczer/paparazzi/var/aircrafts/Quad_LisaMX/ap/generated/periodic_telemetry.h **** #if USE_PERIODIC_TELEMETRY_REPORT
 524:/home/adamczer/paparazzi/var/aircrafts/Quad_LisaMX/ap/generated/periodic_telemetry.h ****       else periodic_telemetry_err_report(TELEMETRY_PROCESS_Main, telemetry_mode_Main, TELEMETRY_MAI
 525:/home/adamczer/paparazzi/var/aircrafts/Quad_LisaMX/ap/generated/periodic_telemetry.h **** #endif
 526:/home/adamczer/paparazzi/var/aircrafts/Quad_LisaMX/ap/generated/periodic_telemetry.h ****     }
 527:/home/adamczer/paparazzi/var/aircrafts/Quad_LisaMX/ap/generated/periodic_telemetry.h ****   }
 528:/home/adamczer/paparazzi/var/aircrafts/Quad_LisaMX/ap/generated/periodic_telemetry.h ****   if (telemetry_mode_Main == TELEMETRY_MODE_Main_ahrs) {
 1725              		.loc 6 528 0
 1726 0a2c 2378     		ldrb	r3, [r4]	@ zero_extendqisi2
 1727 0a2e 042B     		cmp	r3, #4
 1728 0a30 40F0CA80 		bne	.L148
 1729              	.LBB154:
 529:/home/adamczer/paparazzi/var/aircrafts/Quad_LisaMX/ap/generated/periodic_telemetry.h ****     static uint8_t i40 = 0; i40++; if (i40>=40) i40=0;
 1730              		.loc 6 529 0
 1731 0a34 DFF82CA1 		ldr	r10, .L779+36
 530:/home/adamczer/paparazzi/var/aircrafts/Quad_LisaMX/ap/generated/periodic_telemetry.h ****     static uint8_t i51 = 0; i51++; if (i51>=51) i51=0;
 1732              		.loc 6 530 0
 1733 0a38 444A     		ldr	r2, .L779+12
 529:/home/adamczer/paparazzi/var/aircrafts/Quad_LisaMX/ap/generated/periodic_telemetry.h ****     static uint8_t i40 = 0; i40++; if (i40>=40) i40=0;
 1734              		.loc 6 529 0
 1735 0a3a 9AF80030 		ldrb	r3, [r10]	@ zero_extendqisi2
 531:/home/adamczer/paparazzi/var/aircrafts/Quad_LisaMX/ap/generated/periodic_telemetry.h ****     static uint8_t i128 = 0; i128++; if (i128>=128) i128=0;
 532:/home/adamczer/paparazzi/var/aircrafts/Quad_LisaMX/ap/generated/periodic_telemetry.h ****     static uint16_t i256 = 0; i256++; if (i256>=256) i256=0;
 533:/home/adamczer/paparazzi/var/aircrafts/Quad_LisaMX/ap/generated/periodic_telemetry.h ****     static uint16_t i614 = 0; i614++; if (i614>=614) i614=0;
 534:/home/adamczer/paparazzi/var/aircrafts/Quad_LisaMX/ap/generated/periodic_telemetry.h ****     static uint16_t i1075 = 0; i1075++; if (i1075>=1075) i1075=0;
 1736              		.loc 6 534 0
 1737 0a3e DFF828B1 		ldr	fp, .L779+40
 529:/home/adamczer/paparazzi/var/aircrafts/Quad_LisaMX/ap/generated/periodic_telemetry.h ****     static uint8_t i51 = 0; i51++; if (i51>=51) i51=0;
 1738              		.loc 6 529 0
 1739 0a42 0133     		adds	r3, r3, #1
 1740 0a44 DBB2     		uxtb	r3, r3
 1741 0a46 272B     		cmp	r3, #39
 1742 0a48 88BF     		it	hi
 1743 0a4a 0023     		movhi	r3, #0
 1744 0a4c 8AF80030 		strb	r3, [r10]
 530:/home/adamczer/paparazzi/var/aircrafts/Quad_LisaMX/ap/generated/periodic_telemetry.h ****     static uint8_t i51 = 0; i51++; if (i51>=51) i51=0;
 1745              		.loc 6 530 0
 1746 0a50 1378     		ldrb	r3, [r2]	@ zero_extendqisi2
 1747 0a52 0133     		adds	r3, r3, #1
 1748 0a54 DBB2     		uxtb	r3, r3
 1749 0a56 322B     		cmp	r3, #50
 1750 0a58 88BF     		it	hi
 1751 0a5a 0023     		movhi	r3, #0
 1752 0a5c 1370     		strb	r3, [r2]
 531:/home/adamczer/paparazzi/var/aircrafts/Quad_LisaMX/ap/generated/periodic_telemetry.h ****     static uint8_t i128 = 0; i128++; if (i128>=128) i128=0;
 1753              		.loc 6 531 0
 1754 0a5e 3C4A     		ldr	r2, .L779+16
 1755 0a60 1378     		ldrb	r3, [r2]	@ zero_extendqisi2
 1756 0a62 0133     		adds	r3, r3, #1
 1757 0a64 DBB2     		uxtb	r3, r3
 1758 0a66 1806     		lsls	r0, r3, #24
 1759 0a68 48BF     		it	mi
 1760 0a6a 0023     		movmi	r3, #0
 1761 0a6c 1370     		strb	r3, [r2]
 532:/home/adamczer/paparazzi/var/aircrafts/Quad_LisaMX/ap/generated/periodic_telemetry.h ****     static uint16_t i614 = 0; i614++; if (i614>=614) i614=0;
 1762              		.loc 6 532 0
 1763 0a6e 394A     		ldr	r2, .L779+20
 1764 0a70 1388     		ldrh	r3, [r2]
 1765 0a72 0133     		adds	r3, r3, #1
 1766 0a74 9BB2     		uxth	r3, r3
 1767 0a76 FF2B     		cmp	r3, #255
 1768 0a78 88BF     		it	hi
 1769 0a7a 0023     		movhi	r3, #0
 1770 0a7c 1380     		strh	r3, [r2]	@ movhi
 533:/home/adamczer/paparazzi/var/aircrafts/Quad_LisaMX/ap/generated/periodic_telemetry.h ****     static uint16_t i1075 = 0; i1075++; if (i1075>=1075) i1075=0;
 1771              		.loc 6 533 0
 1772 0a7e 364A     		ldr	r2, .L779+24
 1773 0a80 1388     		ldrh	r3, [r2]
 1774 0a82 0133     		adds	r3, r3, #1
 1775 0a84 9BB2     		uxth	r3, r3
 1776 0a86 40F26521 		movw	r1, #613
 1777 0a8a 8B42     		cmp	r3, r1
 1778 0a8c 88BF     		it	hi
 1779 0a8e 0023     		movhi	r3, #0
 1780 0a90 1380     		strh	r3, [r2]	@ movhi
 1781              		.loc 6 534 0
 1782 0a92 BBF80030 		ldrh	r3, [fp]
 1783 0a96 0133     		adds	r3, r3, #1
 1784 0a98 9BB2     		uxth	r3, r3
 1785 0a9a 40F23242 		movw	r2, #1074
 1786 0a9e 9342     		cmp	r3, r2
 535:/home/adamczer/paparazzi/var/aircrafts/Quad_LisaMX/ap/generated/periodic_telemetry.h ****     static uint16_t i1126 = 0; i1126++; if (i1126>=1126) i1126=0;
 1787              		.loc 6 535 0
 1788 0aa0 2E4A     		ldr	r2, .L779+28
 534:/home/adamczer/paparazzi/var/aircrafts/Quad_LisaMX/ap/generated/periodic_telemetry.h ****     static uint16_t i1126 = 0; i1126++; if (i1126>=1126) i1126=0;
 1789              		.loc 6 534 0
 1790 0aa2 88BF     		it	hi
 1791 0aa4 0023     		movhi	r3, #0
 1792 0aa6 ABF80030 		strh	r3, [fp]	@ movhi
 1793              		.loc 6 535 0
 1794 0aaa 1388     		ldrh	r3, [r2]
 1795 0aac 0133     		adds	r3, r3, #1
 1796 0aae 9BB2     		uxth	r3, r3
 1797 0ab0 40F26541 		movw	r1, #1125
 1798 0ab4 8B42     		cmp	r3, r1
 536:/home/adamczer/paparazzi/var/aircrafts/Quad_LisaMX/ap/generated/periodic_telemetry.h ****     static uint16_t i2560 = 0; i2560++; if (i2560>=2560) i2560=0;
 1799              		.loc 6 536 0
 1800 0ab6 2A49     		ldr	r1, .L779+32
 535:/home/adamczer/paparazzi/var/aircrafts/Quad_LisaMX/ap/generated/periodic_telemetry.h ****     static uint16_t i1126 = 0; i1126++; if (i1126>=1126) i1126=0;
 1801              		.loc 6 535 0
 1802 0ab8 88BF     		it	hi
 1803 0aba 0023     		movhi	r3, #0
 1804 0abc 1380     		strh	r3, [r2]	@ movhi
 1805              		.loc 6 536 0
 1806 0abe 0B88     		ldrh	r3, [r1]
 1807 0ac0 0133     		adds	r3, r3, #1
 1808 0ac2 9BB2     		uxth	r3, r3
 1809 0ac4 B3F5206F 		cmp	r3, #2560
 1810 0ac8 28BF     		it	cs
 1811 0aca 0023     		movcs	r3, #0
 1812 0acc 0B80     		strh	r3, [r1]	@ movhi
 537:/home/adamczer/paparazzi/var/aircrafts/Quad_LisaMX/ap/generated/periodic_telemetry.h ****     if (i2560 == 0) {
 1813              		.loc 6 537 0
 1814 0ace 0B88     		ldrh	r3, [r1]
 1815 0ad0 4BB9     		cbnz	r3, .L165
 538:/home/adamczer/paparazzi/var/aircrafts/Quad_LisaMX/ap/generated/periodic_telemetry.h ****       if (telemetry_Main.msgs[TELEMETRY_MAIN_MSG_GEO_MAG_ID].cb != NULL)
 1816              		.loc 6 538 0
 1817 0ad2 1B4B     		ldr	r3, .L779
 1818 0ad4 5B68     		ldr	r3, [r3, #4]
 1819 0ad6 D3F89431 		ldr	r3, [r3, #404]
 1820 0ada 23B1     		cbz	r3, .L165
 539:/home/adamczer/paparazzi/var/aircrafts/Quad_LisaMX/ap/generated/periodic_telemetry.h ****         telemetry_Main.msgs[TELEMETRY_MAIN_MSG_GEO_MAG_ID].cb(trans, dev);
 1821              		.loc 6 539 0
 1822 0adc 1948     		ldr	r0, .L779+4
 1823              	.LVL161:
 1824 0ade 1A49     		ldr	r1, .L779+8
 1825              	.LVL162:
 1826 0ae0 0592     		str	r2, [sp, #20]
 1827 0ae2 9847     		blx	r3
 1828              	.LVL163:
 1829 0ae4 059A     		ldr	r2, [sp, #20]
 1830              	.L165:
 540:/home/adamczer/paparazzi/var/aircrafts/Quad_LisaMX/ap/generated/periodic_telemetry.h **** #if USE_PERIODIC_TELEMETRY_REPORT
 541:/home/adamczer/paparazzi/var/aircrafts/Quad_LisaMX/ap/generated/periodic_telemetry.h ****       else periodic_telemetry_err_report(TELEMETRY_PROCESS_Main, telemetry_mode_Main, TELEMETRY_MAI
 542:/home/adamczer/paparazzi/var/aircrafts/Quad_LisaMX/ap/generated/periodic_telemetry.h **** #endif
 543:/home/adamczer/paparazzi/var/aircrafts/Quad_LisaMX/ap/generated/periodic_telemetry.h ****     }
 544:/home/adamczer/paparazzi/var/aircrafts/Quad_LisaMX/ap/generated/periodic_telemetry.h ****     if (i1126 == 51) {
 1831              		.loc 6 544 0
 1832 0ae6 1388     		ldrh	r3, [r2]
 1833 0ae8 332B     		cmp	r3, #51
 1834 0aea 07D1     		bne	.L166
 545:/home/adamczer/paparazzi/var/aircrafts/Quad_LisaMX/ap/generated/periodic_telemetry.h ****       if (telemetry_Main.msgs[TELEMETRY_MAIN_MSG_FILTER_ALIGNER_ID].cb != NULL)
 1835              		.loc 6 545 0
 1836 0aec 144B     		ldr	r3, .L779
 1837 0aee 5B68     		ldr	r3, [r3, #4]
 1838 0af0 D3F8C830 		ldr	r3, [r3, #200]
 1839 0af4 13B1     		cbz	r3, .L166
 546:/home/adamczer/paparazzi/var/aircrafts/Quad_LisaMX/ap/generated/periodic_telemetry.h ****         telemetry_Main.msgs[TELEMETRY_MAIN_MSG_FILTER_ALIGNER_ID].cb(trans, dev);
 1840              		.loc 6 546 0
 1841 0af6 1348     		ldr	r0, .L779+4
 1842              	.LVL164:
 1843 0af8 1349     		ldr	r1, .L779+8
 1844              	.LVL165:
 1845 0afa 9847     		blx	r3
 1846              	.LVL166:
 1847              	.L166:
 547:/home/adamczer/paparazzi/var/aircrafts/Quad_LisaMX/ap/generated/periodic_telemetry.h **** #if USE_PERIODIC_TELEMETRY_REPORT
 548:/home/adamczer/paparazzi/var/aircrafts/Quad_LisaMX/ap/generated/periodic_telemetry.h ****       else periodic_telemetry_err_report(TELEMETRY_PROCESS_Main, telemetry_mode_Main, TELEMETRY_MAI
 549:/home/adamczer/paparazzi/var/aircrafts/Quad_LisaMX/ap/generated/periodic_telemetry.h **** #endif
 550:/home/adamczer/paparazzi/var/aircrafts/Quad_LisaMX/ap/generated/periodic_telemetry.h ****     }
 551:/home/adamczer/paparazzi/var/aircrafts/Quad_LisaMX/ap/generated/periodic_telemetry.h ****     if (i1075 == 102) {
 1848              		.loc 6 551 0
 1849 0afc BBF80030 		ldrh	r3, [fp]
 1850 0b00 662B     		cmp	r3, #102
 1851 0b02 07D1     		bne	.L167
 552:/home/adamczer/paparazzi/var/aircrafts/Quad_LisaMX/ap/generated/periodic_telemetry.h ****       if (telemetry_Main.msgs[TELEMETRY_MAIN_MSG_ALIVE_ID].cb != NULL)
 1852              		.loc 6 552 0
 1853 0b04 0E4B     		ldr	r3, .L779
 1854 0b06 5B68     		ldr	r3, [r3, #4]
 1855 0b08 D3F8F03B 		ldr	r3, [r3, #3056]
 1856 0b0c 13B1     		cbz	r3, .L167
 553:/home/adamczer/paparazzi/var/aircrafts/Quad_LisaMX/ap/generated/periodic_telemetry.h ****         telemetry_Main.msgs[TELEMETRY_MAIN_MSG_ALIVE_ID].cb(trans, dev);
 1857              		.loc 6 553 0
 1858 0b0e 0D48     		ldr	r0, .L779+4
 1859              	.LVL167:
 1860 0b10 0D49     		ldr	r1, .L779+8
 1861              	.LVL168:
 1862 0b12 9847     		blx	r3
 1863              	.LVL169:
 1864              	.L167:
 554:/home/adamczer/paparazzi/var/aircrafts/Quad_LisaMX/ap/generated/periodic_telemetry.h **** #if USE_PERIODIC_TELEMETRY_REPORT
 555:/home/adamczer/paparazzi/var/aircrafts/Quad_LisaMX/ap/generated/periodic_telemetry.h ****       else periodic_telemetry_err_report(TELEMETRY_PROCESS_Main, telemetry_mode_Main, TELEMETRY_MAI
 556:/home/adamczer/paparazzi/var/aircrafts/Quad_LisaMX/ap/generated/periodic_telemetry.h **** #endif
 557:/home/adamczer/paparazzi/var/aircrafts/Quad_LisaMX/ap/generated/periodic_telemetry.h ****     }
 558:/home/adamczer/paparazzi/var/aircrafts/Quad_LisaMX/ap/generated/periodic_telemetry.h ****     if (i614 == 153) {
 1865              		.loc 6 558 0
 1866 0b14 104B     		ldr	r3, .L779+24
 1867 0b16 1B88     		ldrh	r3, [r3]
 1868 0b18 992B     		cmp	r3, #153
 1869 0b1a 07D1     		bne	.L168
 559:/home/adamczer/paparazzi/var/aircrafts/Quad_LisaMX/ap/generated/periodic_telemetry.h ****       if (telemetry_Main.msgs[TELEMETRY_MAIN_MSG_ROTORCRAFT_STATUS_ID].cb != NULL)
 1870              		.loc 6 559 0
 1871 0b1c 084B     		ldr	r3, .L779
 1872 0b1e 5B68     		ldr	r3, [r3, #4]
 1873 0b20 D3F88430 		ldr	r3, [r3, #132]
 1874 0b24 13B1     		cbz	r3, .L168
 560:/home/adamczer/paparazzi/var/aircrafts/Quad_LisaMX/ap/generated/periodic_telemetry.h ****         telemetry_Main.msgs[TELEMETRY_MAIN_MSG_ROTORCRAFT_STATUS_ID].cb(trans, dev);
 1875              		.loc 6 560 0
 1876 0b26 0748     		ldr	r0, .L779+4
 1877              	.LVL170:
 1878 0b28 0749     		ldr	r1, .L779+8
 1879              	.LVL171:
 1880 0b2a 9847     		blx	r3
 1881              	.LVL172:
 1882              	.L168:
 561:/home/adamczer/paparazzi/var/aircrafts/Quad_LisaMX/ap/generated/periodic_telemetry.h **** #if USE_PERIODIC_TELEMETRY_REPORT
 562:/home/adamczer/paparazzi/var/aircrafts/Quad_LisaMX/ap/generated/periodic_telemetry.h ****       else periodic_telemetry_err_report(TELEMETRY_PROCESS_Main, telemetry_mode_Main, TELEMETRY_MAI
 563:/home/adamczer/paparazzi/var/aircrafts/Quad_LisaMX/ap/generated/periodic_telemetry.h **** #endif
 564:/home/adamczer/paparazzi/var/aircrafts/Quad_LisaMX/ap/generated/periodic_telemetry.h ****     }
 565:/home/adamczer/paparazzi/var/aircrafts/Quad_LisaMX/ap/generated/periodic_telemetry.h ****     if (i256 == 204) {
 1883              		.loc 6 565 0
 1884 0b2c 094B     		ldr	r3, .L779+20
 1885 0b2e 1B88     		ldrh	r3, [r3]
 1886 0b30 CC2B     		cmp	r3, #204
 1887 0b32 1BD1     		bne	.L169
 566:/home/adamczer/paparazzi/var/aircrafts/Quad_LisaMX/ap/generated/periodic_telemetry.h ****       if (telemetry_Main.msgs[TELEMETRY_MAIN_MSG_FILTER_ID].cb != NULL)
 1888              		.loc 6 566 0
 1889 0b34 024B     		ldr	r3, .L779
 1890 0b36 5B68     		ldr	r3, [r3, #4]
 1891 0b38 D3F8D435 		ldr	r3, [r3, #1492]
 1892 0b3c 1CE0     		b	.L758
 1893              	.L780:
 1894 0b3e 00BF     		.align	2
 1895              	.L779:
 1896 0b40 00000000 		.word	telemetry_Main
 1897 0b44 08010000 		.word	pprz_tp+264
 1898 0b48 28010000 		.word	uart2+296
 1899 0b4c 00000000 		.word	.LANCHOR43
 1900 0b50 00000000 		.word	.LANCHOR44
 1901 0b54 00000000 		.word	.LANCHOR45
 1902 0b58 00000000 		.word	.LANCHOR46
 1903 0b5c 00000000 		.word	.LANCHOR48
 1904 0b60 00000000 		.word	.LANCHOR49
 1905 0b64 00000000 		.word	.LANCHOR42
 1906 0b68 00000000 		.word	.LANCHOR47
 1907              	.L169:
 567:/home/adamczer/paparazzi/var/aircrafts/Quad_LisaMX/ap/generated/periodic_telemetry.h ****         telemetry_Main.msgs[TELEMETRY_MAIN_MSG_FILTER_ID].cb(trans, dev);
 568:/home/adamczer/paparazzi/var/aircrafts/Quad_LisaMX/ap/generated/periodic_telemetry.h **** #if USE_PERIODIC_TELEMETRY_REPORT
 569:/home/adamczer/paparazzi/var/aircrafts/Quad_LisaMX/ap/generated/periodic_telemetry.h ****       else periodic_telemetry_err_report(TELEMETRY_PROCESS_Main, telemetry_mode_Main, TELEMETRY_MAI
 570:/home/adamczer/paparazzi/var/aircrafts/Quad_LisaMX/ap/generated/periodic_telemetry.h **** #endif
 571:/home/adamczer/paparazzi/var/aircrafts/Quad_LisaMX/ap/generated/periodic_telemetry.h ****     }
 572:/home/adamczer/paparazzi/var/aircrafts/Quad_LisaMX/ap/generated/periodic_telemetry.h ****     else if (i256 == 255) {
 1908              		.loc 6 572 0
 1909 0b6c FF2B     		cmp	r3, #255
 1910 0b6e 07D1     		bne	.L170
 573:/home/adamczer/paparazzi/var/aircrafts/Quad_LisaMX/ap/generated/periodic_telemetry.h ****       if (telemetry_Main.msgs[TELEMETRY_MAIN_MSG_DL_VALUE_ID].cb != NULL)
 1911              		.loc 6 573 0
 1912 0b70 974B     		ldr	r3, .L781
 1913 0b72 5B68     		ldr	r3, [r3, #4]
 1914 0b74 D3F8783C 		ldr	r3, [r3, #3192]
 1915              	.L758:
 1916 0b78 13B1     		cbz	r3, .L170
 574:/home/adamczer/paparazzi/var/aircrafts/Quad_LisaMX/ap/generated/periodic_telemetry.h ****         telemetry_Main.msgs[TELEMETRY_MAIN_MSG_DL_VALUE_ID].cb(trans, dev);
 1917              		.loc 6 574 0
 1918 0b7a 9648     		ldr	r0, .L781+4
 1919              	.LVL173:
 1920 0b7c 9649     		ldr	r1, .L781+8
 1921              	.LVL174:
 1922 0b7e 9847     		blx	r3
 1923              	.LVL175:
 1924              	.L170:
 575:/home/adamczer/paparazzi/var/aircrafts/Quad_LisaMX/ap/generated/periodic_telemetry.h **** #if USE_PERIODIC_TELEMETRY_REPORT
 576:/home/adamczer/paparazzi/var/aircrafts/Quad_LisaMX/ap/generated/periodic_telemetry.h ****       else periodic_telemetry_err_report(TELEMETRY_PROCESS_Main, telemetry_mode_Main, TELEMETRY_MAI
 577:/home/adamczer/paparazzi/var/aircrafts/Quad_LisaMX/ap/generated/periodic_telemetry.h **** #endif
 578:/home/adamczer/paparazzi/var/aircrafts/Quad_LisaMX/ap/generated/periodic_telemetry.h ****     }
 579:/home/adamczer/paparazzi/var/aircrafts/Quad_LisaMX/ap/generated/periodic_telemetry.h ****     if (i128 == 50) {
 1925              		.loc 6 579 0
 1926 0b80 964B     		ldr	r3, .L781+12
 1927 0b82 1B78     		ldrb	r3, [r3]	@ zero_extendqisi2
 1928 0b84 322B     		cmp	r3, #50
 1929 0b86 07D1     		bne	.L171
 580:/home/adamczer/paparazzi/var/aircrafts/Quad_LisaMX/ap/generated/periodic_telemetry.h ****       if (telemetry_Main.msgs[TELEMETRY_MAIN_MSG_AHRS_QUAT_INT_ID].cb != NULL)
 1930              		.loc 6 580 0
 1931 0b88 914B     		ldr	r3, .L781
 1932 0b8a 5B68     		ldr	r3, [r3, #4]
 1933 0b8c D3F8003D 		ldr	r3, [r3, #3328]
 1934 0b90 13B1     		cbz	r3, .L171
 581:/home/adamczer/paparazzi/var/aircrafts/Quad_LisaMX/ap/generated/periodic_telemetry.h ****         telemetry_Main.msgs[TELEMETRY_MAIN_MSG_AHRS_QUAT_INT_ID].cb(trans, dev);
 1935              		.loc 6 581 0
 1936 0b92 9048     		ldr	r0, .L781+4
 1937              	.LVL176:
 1938 0b94 9049     		ldr	r1, .L781+8
 1939              	.LVL177:
 1940 0b96 9847     		blx	r3
 1941              	.LVL178:
 1942              	.L171:
 582:/home/adamczer/paparazzi/var/aircrafts/Quad_LisaMX/ap/generated/periodic_telemetry.h **** #if USE_PERIODIC_TELEMETRY_REPORT
 583:/home/adamczer/paparazzi/var/aircrafts/Quad_LisaMX/ap/generated/periodic_telemetry.h ****       else periodic_telemetry_err_report(TELEMETRY_PROCESS_Main, telemetry_mode_Main, TELEMETRY_MAI
 584:/home/adamczer/paparazzi/var/aircrafts/Quad_LisaMX/ap/generated/periodic_telemetry.h **** #endif
 585:/home/adamczer/paparazzi/var/aircrafts/Quad_LisaMX/ap/generated/periodic_telemetry.h ****     }
 586:/home/adamczer/paparazzi/var/aircrafts/Quad_LisaMX/ap/generated/periodic_telemetry.h ****     if (i51 == 50) {
 1943              		.loc 6 586 0
 1944 0b98 914B     		ldr	r3, .L781+16
 1945 0b9a 1B78     		ldrb	r3, [r3]	@ zero_extendqisi2
 1946 0b9c 322B     		cmp	r3, #50
 1947 0b9e 07D1     		bne	.L172
 587:/home/adamczer/paparazzi/var/aircrafts/Quad_LisaMX/ap/generated/periodic_telemetry.h ****       if (telemetry_Main.msgs[TELEMETRY_MAIN_MSG_AHRS_EULER_INT_ID].cb != NULL)
 1948              		.loc 6 587 0
 1949 0ba0 8B4B     		ldr	r3, .L781
 1950 0ba2 5B68     		ldr	r3, [r3, #4]
 1951 0ba4 D3F8B433 		ldr	r3, [r3, #948]
 1952 0ba8 13B1     		cbz	r3, .L172
 588:/home/adamczer/paparazzi/var/aircrafts/Quad_LisaMX/ap/generated/periodic_telemetry.h ****         telemetry_Main.msgs[TELEMETRY_MAIN_MSG_AHRS_EULER_INT_ID].cb(trans, dev);
 1953              		.loc 6 588 0
 1954 0baa 8A48     		ldr	r0, .L781+4
 1955              	.LVL179:
 1956 0bac 8A49     		ldr	r1, .L781+8
 1957              	.LVL180:
 1958 0bae 9847     		blx	r3
 1959              	.LVL181:
 1960              	.L172:
 589:/home/adamczer/paparazzi/var/aircrafts/Quad_LisaMX/ap/generated/periodic_telemetry.h **** #if USE_PERIODIC_TELEMETRY_REPORT
 590:/home/adamczer/paparazzi/var/aircrafts/Quad_LisaMX/ap/generated/periodic_telemetry.h ****       else periodic_telemetry_err_report(TELEMETRY_PROCESS_Main, telemetry_mode_Main, TELEMETRY_MAI
 591:/home/adamczer/paparazzi/var/aircrafts/Quad_LisaMX/ap/generated/periodic_telemetry.h **** #endif
 592:/home/adamczer/paparazzi/var/aircrafts/Quad_LisaMX/ap/generated/periodic_telemetry.h ****     }
 593:/home/adamczer/paparazzi/var/aircrafts/Quad_LisaMX/ap/generated/periodic_telemetry.h ****     if (i40 == 21) {
 1961              		.loc 6 593 0
 1962 0bb0 9AF80030 		ldrb	r3, [r10]	@ zero_extendqisi2
 1963 0bb4 152B     		cmp	r3, #21
 1964 0bb6 07D1     		bne	.L148
 594:/home/adamczer/paparazzi/var/aircrafts/Quad_LisaMX/ap/generated/periodic_telemetry.h ****       if (telemetry_Main.msgs[TELEMETRY_MAIN_MSG_AHRS_GYRO_BIAS_INT_ID].cb != NULL)
 1965              		.loc 6 594 0
 1966 0bb8 854B     		ldr	r3, .L781
 1967 0bba 5B68     		ldr	r3, [r3, #4]
 1968 0bbc D3F8243B 		ldr	r3, [r3, #2852]
 1969 0bc0 13B1     		cbz	r3, .L148
 595:/home/adamczer/paparazzi/var/aircrafts/Quad_LisaMX/ap/generated/periodic_telemetry.h ****         telemetry_Main.msgs[TELEMETRY_MAIN_MSG_AHRS_GYRO_BIAS_INT_ID].cb(trans, dev);
 1970              		.loc 6 595 0
 1971 0bc2 8448     		ldr	r0, .L781+4
 1972              	.LVL182:
 1973 0bc4 8449     		ldr	r1, .L781+8
 1974              	.LVL183:
 1975 0bc6 9847     		blx	r3
 1976              	.LVL184:
 1977              	.L148:
 1978              	.LBE154:
 596:/home/adamczer/paparazzi/var/aircrafts/Quad_LisaMX/ap/generated/periodic_telemetry.h **** #if USE_PERIODIC_TELEMETRY_REPORT
 597:/home/adamczer/paparazzi/var/aircrafts/Quad_LisaMX/ap/generated/periodic_telemetry.h ****       else periodic_telemetry_err_report(TELEMETRY_PROCESS_Main, telemetry_mode_Main, TELEMETRY_MAI
 598:/home/adamczer/paparazzi/var/aircrafts/Quad_LisaMX/ap/generated/periodic_telemetry.h **** #endif
 599:/home/adamczer/paparazzi/var/aircrafts/Quad_LisaMX/ap/generated/periodic_telemetry.h ****     }
 600:/home/adamczer/paparazzi/var/aircrafts/Quad_LisaMX/ap/generated/periodic_telemetry.h ****   }
 601:/home/adamczer/paparazzi/var/aircrafts/Quad_LisaMX/ap/generated/periodic_telemetry.h ****   if (telemetry_mode_Main == TELEMETRY_MODE_Main_rate_loop) {
 1979              		.loc 6 601 0
 1980 0bc8 2378     		ldrb	r3, [r4]	@ zero_extendqisi2
 1981 0bca 052B     		cmp	r3, #5
 1982 0bcc 57D1     		bne	.L175
 1983              	.LBB155:
 602:/home/adamczer/paparazzi/var/aircrafts/Quad_LisaMX/ap/generated/periodic_telemetry.h ****     static uint8_t i10 = 0; i10++; if (i10>=10) i10=0;
 1984              		.loc 6 602 0
 1985 0bce DFF830A2 		ldr	r10, .L781+48
 603:/home/adamczer/paparazzi/var/aircrafts/Quad_LisaMX/ap/generated/periodic_telemetry.h ****     static uint16_t i256 = 0; i256++; if (i256>=256) i256=0;
 1986              		.loc 6 603 0
 1987 0bd2 844A     		ldr	r2, .L781+20
 602:/home/adamczer/paparazzi/var/aircrafts/Quad_LisaMX/ap/generated/periodic_telemetry.h ****     static uint8_t i10 = 0; i10++; if (i10>=10) i10=0;
 1988              		.loc 6 602 0
 1989 0bd4 9AF80030 		ldrb	r3, [r10]	@ zero_extendqisi2
 604:/home/adamczer/paparazzi/var/aircrafts/Quad_LisaMX/ap/generated/periodic_telemetry.h ****     static uint16_t i614 = 0; i614++; if (i614>=614) i614=0;
 1990              		.loc 6 604 0
 1991 0bd8 DFF828B2 		ldr	fp, .L781+52
 602:/home/adamczer/paparazzi/var/aircrafts/Quad_LisaMX/ap/generated/periodic_telemetry.h ****     static uint8_t i10 = 0; i10++; if (i10>=10) i10=0;
 1992              		.loc 6 602 0
 1993 0bdc 0133     		adds	r3, r3, #1
 1994 0bde DBB2     		uxtb	r3, r3
 1995 0be0 092B     		cmp	r3, #9
 1996 0be2 88BF     		it	hi
 1997 0be4 0023     		movhi	r3, #0
 1998 0be6 8AF80030 		strb	r3, [r10]
 603:/home/adamczer/paparazzi/var/aircrafts/Quad_LisaMX/ap/generated/periodic_telemetry.h ****     static uint16_t i256 = 0; i256++; if (i256>=256) i256=0;
 1999              		.loc 6 603 0
 2000 0bea 1388     		ldrh	r3, [r2]
 2001 0bec 0133     		adds	r3, r3, #1
 2002 0bee 9BB2     		uxth	r3, r3
 2003 0bf0 FF2B     		cmp	r3, #255
 2004 0bf2 88BF     		it	hi
 2005 0bf4 0023     		movhi	r3, #0
 2006 0bf6 1380     		strh	r3, [r2]	@ movhi
 2007              		.loc 6 604 0
 2008 0bf8 BBF80030 		ldrh	r3, [fp]
 2009 0bfc 0133     		adds	r3, r3, #1
 2010 0bfe 9BB2     		uxth	r3, r3
 2011 0c00 40F26522 		movw	r2, #613
 2012 0c04 9342     		cmp	r3, r2
 605:/home/adamczer/paparazzi/var/aircrafts/Quad_LisaMX/ap/generated/periodic_telemetry.h ****     static uint16_t i1075 = 0; i1075++; if (i1075>=1075) i1075=0;
 2013              		.loc 6 605 0
 2014 0c06 784A     		ldr	r2, .L781+24
 604:/home/adamczer/paparazzi/var/aircrafts/Quad_LisaMX/ap/generated/periodic_telemetry.h ****     static uint16_t i614 = 0; i614++; if (i614>=614) i614=0;
 2015              		.loc 6 604 0
 2016 0c08 88BF     		it	hi
 2017 0c0a 0023     		movhi	r3, #0
 2018 0c0c ABF80030 		strh	r3, [fp]	@ movhi
 2019              		.loc 6 605 0
 2020 0c10 1388     		ldrh	r3, [r2]
 2021 0c12 0133     		adds	r3, r3, #1
 2022 0c14 9BB2     		uxth	r3, r3
 2023 0c16 40F23241 		movw	r1, #1074
 2024 0c1a 8B42     		cmp	r3, r1
 2025 0c1c 88BF     		it	hi
 2026 0c1e 0023     		movhi	r3, #0
 2027 0c20 1380     		strh	r3, [r2]	@ movhi
 606:/home/adamczer/paparazzi/var/aircrafts/Quad_LisaMX/ap/generated/periodic_telemetry.h ****     if (i1075 == 0) {
 2028              		.loc 6 606 0
 2029 0c22 1388     		ldrh	r3, [r2]
 2030 0c24 3BB9     		cbnz	r3, .L184
 607:/home/adamczer/paparazzi/var/aircrafts/Quad_LisaMX/ap/generated/periodic_telemetry.h ****       if (telemetry_Main.msgs[TELEMETRY_MAIN_MSG_ALIVE_ID].cb != NULL)
 2031              		.loc 6 607 0
 2032 0c26 6A4B     		ldr	r3, .L781
 2033 0c28 5B68     		ldr	r3, [r3, #4]
 2034 0c2a D3F8F03B 		ldr	r3, [r3, #3056]
 2035 0c2e 13B1     		cbz	r3, .L184
 608:/home/adamczer/paparazzi/var/aircrafts/Quad_LisaMX/ap/generated/periodic_telemetry.h ****         telemetry_Main.msgs[TELEMETRY_MAIN_MSG_ALIVE_ID].cb(trans, dev);
 2036              		.loc 6 608 0
 2037 0c30 6848     		ldr	r0, .L781+4
 2038              	.LVL185:
 2039 0c32 6949     		ldr	r1, .L781+8
 2040              	.LVL186:
 2041 0c34 9847     		blx	r3
 2042              	.LVL187:
 2043              	.L184:
 609:/home/adamczer/paparazzi/var/aircrafts/Quad_LisaMX/ap/generated/periodic_telemetry.h **** #if USE_PERIODIC_TELEMETRY_REPORT
 610:/home/adamczer/paparazzi/var/aircrafts/Quad_LisaMX/ap/generated/periodic_telemetry.h ****       else periodic_telemetry_err_report(TELEMETRY_PROCESS_Main, telemetry_mode_Main, TELEMETRY_MAI
 611:/home/adamczer/paparazzi/var/aircrafts/Quad_LisaMX/ap/generated/periodic_telemetry.h **** #endif
 612:/home/adamczer/paparazzi/var/aircrafts/Quad_LisaMX/ap/generated/periodic_telemetry.h ****     }
 613:/home/adamczer/paparazzi/var/aircrafts/Quad_LisaMX/ap/generated/periodic_telemetry.h ****     if (i614 == 51) {
 2044              		.loc 6 613 0
 2045 0c36 BBF80030 		ldrh	r3, [fp]
 2046 0c3a 332B     		cmp	r3, #51
 2047 0c3c 07D1     		bne	.L185
 614:/home/adamczer/paparazzi/var/aircrafts/Quad_LisaMX/ap/generated/periodic_telemetry.h ****       if (telemetry_Main.msgs[TELEMETRY_MAIN_MSG_ROTORCRAFT_STATUS_ID].cb != NULL)
 2048              		.loc 6 614 0
 2049 0c3e 644B     		ldr	r3, .L781
 2050 0c40 5B68     		ldr	r3, [r3, #4]
 2051 0c42 D3F88430 		ldr	r3, [r3, #132]
 2052 0c46 13B1     		cbz	r3, .L185
 615:/home/adamczer/paparazzi/var/aircrafts/Quad_LisaMX/ap/generated/periodic_telemetry.h ****         telemetry_Main.msgs[TELEMETRY_MAIN_MSG_ROTORCRAFT_STATUS_ID].cb(trans, dev);
 2053              		.loc 6 615 0
 2054 0c48 6248     		ldr	r0, .L781+4
 2055              	.LVL188:
 2056 0c4a 6349     		ldr	r1, .L781+8
 2057              	.LVL189:
 2058 0c4c 9847     		blx	r3
 2059              	.LVL190:
 2060              	.L185:
 616:/home/adamczer/paparazzi/var/aircrafts/Quad_LisaMX/ap/generated/periodic_telemetry.h **** #if USE_PERIODIC_TELEMETRY_REPORT
 617:/home/adamczer/paparazzi/var/aircrafts/Quad_LisaMX/ap/generated/periodic_telemetry.h ****       else periodic_telemetry_err_report(TELEMETRY_PROCESS_Main, telemetry_mode_Main, TELEMETRY_MAI
 618:/home/adamczer/paparazzi/var/aircrafts/Quad_LisaMX/ap/generated/periodic_telemetry.h **** #endif
 619:/home/adamczer/paparazzi/var/aircrafts/Quad_LisaMX/ap/generated/periodic_telemetry.h ****     }
 620:/home/adamczer/paparazzi/var/aircrafts/Quad_LisaMX/ap/generated/periodic_telemetry.h ****     if (i256 == 102) {
 2061              		.loc 6 620 0
 2062 0c4e 654B     		ldr	r3, .L781+20
 2063 0c50 1B88     		ldrh	r3, [r3]
 2064 0c52 662B     		cmp	r3, #102
 2065 0c54 07D1     		bne	.L186
 621:/home/adamczer/paparazzi/var/aircrafts/Quad_LisaMX/ap/generated/periodic_telemetry.h ****       if (telemetry_Main.msgs[TELEMETRY_MAIN_MSG_DL_VALUE_ID].cb != NULL)
 2066              		.loc 6 621 0
 2067 0c56 5E4B     		ldr	r3, .L781
 2068 0c58 5B68     		ldr	r3, [r3, #4]
 2069 0c5a D3F8783C 		ldr	r3, [r3, #3192]
 2070 0c5e 13B1     		cbz	r3, .L186
 622:/home/adamczer/paparazzi/var/aircrafts/Quad_LisaMX/ap/generated/periodic_telemetry.h ****         telemetry_Main.msgs[TELEMETRY_MAIN_MSG_DL_VALUE_ID].cb(trans, dev);
 2071              		.loc 6 622 0
 2072 0c60 5C48     		ldr	r0, .L781+4
 2073              	.LVL191:
 2074 0c62 5D49     		ldr	r1, .L781+8
 2075              	.LVL192:
 2076 0c64 9847     		blx	r3
 2077              	.LVL193:
 2078              	.L186:
 623:/home/adamczer/paparazzi/var/aircrafts/Quad_LisaMX/ap/generated/periodic_telemetry.h **** #if USE_PERIODIC_TELEMETRY_REPORT
 624:/home/adamczer/paparazzi/var/aircrafts/Quad_LisaMX/ap/generated/periodic_telemetry.h ****       else periodic_telemetry_err_report(TELEMETRY_PROCESS_Main, telemetry_mode_Main, TELEMETRY_MAI
 625:/home/adamczer/paparazzi/var/aircrafts/Quad_LisaMX/ap/generated/periodic_telemetry.h **** #endif
 626:/home/adamczer/paparazzi/var/aircrafts/Quad_LisaMX/ap/generated/periodic_telemetry.h ****     }
 627:/home/adamczer/paparazzi/var/aircrafts/Quad_LisaMX/ap/generated/periodic_telemetry.h ****     if (i10 == 3) {
 2079              		.loc 6 627 0
 2080 0c66 9AF80030 		ldrb	r3, [r10]	@ zero_extendqisi2
 2081 0c6a 032B     		cmp	r3, #3
 2082 0c6c 07D1     		bne	.L175
 628:/home/adamczer/paparazzi/var/aircrafts/Quad_LisaMX/ap/generated/periodic_telemetry.h ****       if (telemetry_Main.msgs[TELEMETRY_MAIN_MSG_RATE_LOOP_ID].cb != NULL)
 2083              		.loc 6 628 0
 2084 0c6e 584B     		ldr	r3, .L781
 2085 0c70 5B68     		ldr	r3, [r3, #4]
 2086 0c72 D3F88C39 		ldr	r3, [r3, #2444]
 2087 0c76 13B1     		cbz	r3, .L175
 629:/home/adamczer/paparazzi/var/aircrafts/Quad_LisaMX/ap/generated/periodic_telemetry.h ****         telemetry_Main.msgs[TELEMETRY_MAIN_MSG_RATE_LOOP_ID].cb(trans, dev);
 2088              		.loc 6 629 0
 2089 0c78 5648     		ldr	r0, .L781+4
 2090              	.LVL194:
 2091 0c7a 5749     		ldr	r1, .L781+8
 2092              	.LVL195:
 2093 0c7c 9847     		blx	r3
 2094              	.LVL196:
 2095              	.L175:
 2096              	.LBE155:
 630:/home/adamczer/paparazzi/var/aircrafts/Quad_LisaMX/ap/generated/periodic_telemetry.h **** #if USE_PERIODIC_TELEMETRY_REPORT
 631:/home/adamczer/paparazzi/var/aircrafts/Quad_LisaMX/ap/generated/periodic_telemetry.h ****       else periodic_telemetry_err_report(TELEMETRY_PROCESS_Main, telemetry_mode_Main, TELEMETRY_MAI
 632:/home/adamczer/paparazzi/var/aircrafts/Quad_LisaMX/ap/generated/periodic_telemetry.h **** #endif
 633:/home/adamczer/paparazzi/var/aircrafts/Quad_LisaMX/ap/generated/periodic_telemetry.h ****     }
 634:/home/adamczer/paparazzi/var/aircrafts/Quad_LisaMX/ap/generated/periodic_telemetry.h ****   }
 635:/home/adamczer/paparazzi/var/aircrafts/Quad_LisaMX/ap/generated/periodic_telemetry.h ****   if (telemetry_mode_Main == TELEMETRY_MODE_Main_attitude_setpoint_viz) {
 2097              		.loc 6 635 0
 2098 0c7e 2378     		ldrb	r3, [r4]	@ zero_extendqisi2
 2099 0c80 062B     		cmp	r3, #6
 2100 0c82 6AD1     		bne	.L189
 2101              	.LBB156:
 636:/home/adamczer/paparazzi/var/aircrafts/Quad_LisaMX/ap/generated/periodic_telemetry.h ****     static uint8_t i25 = 0; i25++; if (i25>=25) i25=0;
 2102              		.loc 6 636 0
 2103 0c84 DFF880A1 		ldr	r10, .L781+56
 637:/home/adamczer/paparazzi/var/aircrafts/Quad_LisaMX/ap/generated/periodic_telemetry.h ****     static uint8_t i51 = 0; i51++; if (i51>=51) i51=0;
 2104              		.loc 6 637 0
 2105 0c88 DFF880B1 		ldr	fp, .L781+60
 636:/home/adamczer/paparazzi/var/aircrafts/Quad_LisaMX/ap/generated/periodic_telemetry.h ****     static uint8_t i25 = 0; i25++; if (i25>=25) i25=0;
 2106              		.loc 6 636 0
 2107 0c8c 9AF80030 		ldrb	r3, [r10]	@ zero_extendqisi2
 638:/home/adamczer/paparazzi/var/aircrafts/Quad_LisaMX/ap/generated/periodic_telemetry.h ****     static uint16_t i256 = 0; i256++; if (i256>=256) i256=0;
 2108              		.loc 6 638 0
 2109 0c90 564A     		ldr	r2, .L781+28
 639:/home/adamczer/paparazzi/var/aircrafts/Quad_LisaMX/ap/generated/periodic_telemetry.h ****     static uint16_t i460 = 0; i460++; if (i460>=460) i460=0;
 640:/home/adamczer/paparazzi/var/aircrafts/Quad_LisaMX/ap/generated/periodic_telemetry.h ****     static uint16_t i614 = 0; i614++; if (i614>=614) i614=0;
 2110              		.loc 6 640 0
 2111 0c92 5749     		ldr	r1, .L781+32
 636:/home/adamczer/paparazzi/var/aircrafts/Quad_LisaMX/ap/generated/periodic_telemetry.h ****     static uint8_t i51 = 0; i51++; if (i51>=51) i51=0;
 2112              		.loc 6 636 0
 2113 0c94 0133     		adds	r3, r3, #1
 2114 0c96 DBB2     		uxtb	r3, r3
 2115 0c98 182B     		cmp	r3, #24
 2116 0c9a 88BF     		it	hi
 2117 0c9c 0023     		movhi	r3, #0
 2118 0c9e 8AF80030 		strb	r3, [r10]
 637:/home/adamczer/paparazzi/var/aircrafts/Quad_LisaMX/ap/generated/periodic_telemetry.h ****     static uint16_t i256 = 0; i256++; if (i256>=256) i256=0;
 2119              		.loc 6 637 0
 2120 0ca2 9BF80030 		ldrb	r3, [fp]	@ zero_extendqisi2
 2121 0ca6 0133     		adds	r3, r3, #1
 2122 0ca8 DBB2     		uxtb	r3, r3
 2123 0caa 322B     		cmp	r3, #50
 2124 0cac 88BF     		it	hi
 2125 0cae 0023     		movhi	r3, #0
 2126 0cb0 8BF80030 		strb	r3, [fp]
 638:/home/adamczer/paparazzi/var/aircrafts/Quad_LisaMX/ap/generated/periodic_telemetry.h ****     static uint16_t i460 = 0; i460++; if (i460>=460) i460=0;
 2127              		.loc 6 638 0
 2128 0cb4 1388     		ldrh	r3, [r2]
 2129 0cb6 0133     		adds	r3, r3, #1
 2130 0cb8 9BB2     		uxth	r3, r3
 2131 0cba FF2B     		cmp	r3, #255
 2132 0cbc 88BF     		it	hi
 2133 0cbe 0023     		movhi	r3, #0
 2134 0cc0 1380     		strh	r3, [r2]	@ movhi
 639:/home/adamczer/paparazzi/var/aircrafts/Quad_LisaMX/ap/generated/periodic_telemetry.h ****     static uint16_t i614 = 0; i614++; if (i614>=614) i614=0;
 2135              		.loc 6 639 0
 2136 0cc2 4C4A     		ldr	r2, .L781+36
 2137 0cc4 1388     		ldrh	r3, [r2]
 2138 0cc6 0133     		adds	r3, r3, #1
 2139 0cc8 9BB2     		uxth	r3, r3
 2140 0cca B3F5E67F 		cmp	r3, #460
 2141 0cce 28BF     		it	cs
 2142 0cd0 0023     		movcs	r3, #0
 2143 0cd2 1380     		strh	r3, [r2]	@ movhi
 2144              		.loc 6 640 0
 2145 0cd4 0B88     		ldrh	r3, [r1]
 2146 0cd6 0133     		adds	r3, r3, #1
 2147 0cd8 9BB2     		uxth	r3, r3
 2148 0cda 40F26520 		movw	r0, #613
 2149 0cde 8342     		cmp	r3, r0
 2150 0ce0 88BF     		it	hi
 2151 0ce2 0023     		movhi	r3, #0
 2152 0ce4 0B80     		strh	r3, [r1]	@ movhi
 641:/home/adamczer/paparazzi/var/aircrafts/Quad_LisaMX/ap/generated/periodic_telemetry.h ****     if (i614 == 0) {
 2153              		.loc 6 641 0
 2154 0ce6 0B88     		ldrh	r3, [r1]
 2155 0ce8 4BB9     		cbnz	r3, .L200
 642:/home/adamczer/paparazzi/var/aircrafts/Quad_LisaMX/ap/generated/periodic_telemetry.h ****       if (telemetry_Main.msgs[TELEMETRY_MAIN_MSG_ROTORCRAFT_STATUS_ID].cb != NULL)
 2156              		.loc 6 642 0
 2157 0cea 394B     		ldr	r3, .L781
 2158 0cec 5B68     		ldr	r3, [r3, #4]
 2159 0cee D3F88430 		ldr	r3, [r3, #132]
 2160 0cf2 23B1     		cbz	r3, .L200
 643:/home/adamczer/paparazzi/var/aircrafts/Quad_LisaMX/ap/generated/periodic_telemetry.h ****         telemetry_Main.msgs[TELEMETRY_MAIN_MSG_ROTORCRAFT_STATUS_ID].cb(trans, dev);
 2161              		.loc 6 643 0
 2162 0cf4 3748     		ldr	r0, .L781+4
 2163              	.LVL197:
 2164 0cf6 3849     		ldr	r1, .L781+8
 2165              	.LVL198:
 2166 0cf8 0592     		str	r2, [sp, #20]
 2167 0cfa 9847     		blx	r3
 2168              	.LVL199:
 2169 0cfc 059A     		ldr	r2, [sp, #20]
 2170              	.L200:
 644:/home/adamczer/paparazzi/var/aircrafts/Quad_LisaMX/ap/generated/periodic_telemetry.h **** #if USE_PERIODIC_TELEMETRY_REPORT
 645:/home/adamczer/paparazzi/var/aircrafts/Quad_LisaMX/ap/generated/periodic_telemetry.h ****       else periodic_telemetry_err_report(TELEMETRY_PROCESS_Main, telemetry_mode_Main, TELEMETRY_MAI
 646:/home/adamczer/paparazzi/var/aircrafts/Quad_LisaMX/ap/generated/periodic_telemetry.h **** #endif
 647:/home/adamczer/paparazzi/var/aircrafts/Quad_LisaMX/ap/generated/periodic_telemetry.h ****     }
 648:/home/adamczer/paparazzi/var/aircrafts/Quad_LisaMX/ap/generated/periodic_telemetry.h ****     if (i460 == 51) {
 2171              		.loc 6 648 0
 2172 0cfe 1388     		ldrh	r3, [r2]
 2173 0d00 332B     		cmp	r3, #51
 2174 0d02 07D1     		bne	.L201
 649:/home/adamczer/paparazzi/var/aircrafts/Quad_LisaMX/ap/generated/periodic_telemetry.h ****       if (telemetry_Main.msgs[TELEMETRY_MAIN_MSG_ALIVE_ID].cb != NULL)
 2175              		.loc 6 649 0
 2176 0d04 324B     		ldr	r3, .L781
 2177 0d06 5B68     		ldr	r3, [r3, #4]
 2178 0d08 D3F8F03B 		ldr	r3, [r3, #3056]
 2179 0d0c 13B1     		cbz	r3, .L201
 650:/home/adamczer/paparazzi/var/aircrafts/Quad_LisaMX/ap/generated/periodic_telemetry.h ****         telemetry_Main.msgs[TELEMETRY_MAIN_MSG_ALIVE_ID].cb(trans, dev);
 2180              		.loc 6 650 0
 2181 0d0e 3148     		ldr	r0, .L781+4
 2182              	.LVL200:
 2183 0d10 3149     		ldr	r1, .L781+8
 2184              	.LVL201:
 2185 0d12 9847     		blx	r3
 2186              	.LVL202:
 2187              	.L201:
 651:/home/adamczer/paparazzi/var/aircrafts/Quad_LisaMX/ap/generated/periodic_telemetry.h **** #if USE_PERIODIC_TELEMETRY_REPORT
 652:/home/adamczer/paparazzi/var/aircrafts/Quad_LisaMX/ap/generated/periodic_telemetry.h ****       else periodic_telemetry_err_report(TELEMETRY_PROCESS_Main, telemetry_mode_Main, TELEMETRY_MAI
 653:/home/adamczer/paparazzi/var/aircrafts/Quad_LisaMX/ap/generated/periodic_telemetry.h **** #endif
 654:/home/adamczer/paparazzi/var/aircrafts/Quad_LisaMX/ap/generated/periodic_telemetry.h ****     }
 655:/home/adamczer/paparazzi/var/aircrafts/Quad_LisaMX/ap/generated/periodic_telemetry.h ****     if (i256 == 102) {
 2188              		.loc 6 655 0
 2189 0d14 354B     		ldr	r3, .L781+28
 2190 0d16 1B88     		ldrh	r3, [r3]
 2191 0d18 662B     		cmp	r3, #102
 2192 0d1a 07D1     		bne	.L202
 656:/home/adamczer/paparazzi/var/aircrafts/Quad_LisaMX/ap/generated/periodic_telemetry.h ****       if (telemetry_Main.msgs[TELEMETRY_MAIN_MSG_DL_VALUE_ID].cb != NULL)
 2193              		.loc 6 656 0
 2194 0d1c 2C4B     		ldr	r3, .L781
 2195 0d1e 5B68     		ldr	r3, [r3, #4]
 2196 0d20 D3F8783C 		ldr	r3, [r3, #3192]
 2197 0d24 13B1     		cbz	r3, .L202
 657:/home/adamczer/paparazzi/var/aircrafts/Quad_LisaMX/ap/generated/periodic_telemetry.h ****         telemetry_Main.msgs[TELEMETRY_MAIN_MSG_DL_VALUE_ID].cb(trans, dev);
 2198              		.loc 6 657 0
 2199 0d26 2B48     		ldr	r0, .L781+4
 2200              	.LVL203:
 2201 0d28 2B49     		ldr	r1, .L781+8
 2202              	.LVL204:
 2203 0d2a 9847     		blx	r3
 2204              	.LVL205:
 2205              	.L202:
 658:/home/adamczer/paparazzi/var/aircrafts/Quad_LisaMX/ap/generated/periodic_telemetry.h **** #if USE_PERIODIC_TELEMETRY_REPORT
 659:/home/adamczer/paparazzi/var/aircrafts/Quad_LisaMX/ap/generated/periodic_telemetry.h ****       else periodic_telemetry_err_report(TELEMETRY_PROCESS_Main, telemetry_mode_Main, TELEMETRY_MAI
 660:/home/adamczer/paparazzi/var/aircrafts/Quad_LisaMX/ap/generated/periodic_telemetry.h **** #endif
 661:/home/adamczer/paparazzi/var/aircrafts/Quad_LisaMX/ap/generated/periodic_telemetry.h ****     }
 662:/home/adamczer/paparazzi/var/aircrafts/Quad_LisaMX/ap/generated/periodic_telemetry.h ****     if (i51 == 0) {
 2206              		.loc 6 662 0
 2207 0d2c 9BF80030 		ldrb	r3, [fp]	@ zero_extendqisi2
 2208 0d30 3BB9     		cbnz	r3, .L203
 663:/home/adamczer/paparazzi/var/aircrafts/Quad_LisaMX/ap/generated/periodic_telemetry.h ****       if (telemetry_Main.msgs[TELEMETRY_MAIN_MSG_ROTORCRAFT_RADIO_CONTROL_ID].cb != NULL)
 2209              		.loc 6 663 0
 2210 0d32 274B     		ldr	r3, .L781
 2211 0d34 5B68     		ldr	r3, [r3, #4]
 2212 0d36 D3F86032 		ldr	r3, [r3, #608]
 2213 0d3a 13B1     		cbz	r3, .L203
 664:/home/adamczer/paparazzi/var/aircrafts/Quad_LisaMX/ap/generated/periodic_telemetry.h ****         telemetry_Main.msgs[TELEMETRY_MAIN_MSG_ROTORCRAFT_RADIO_CONTROL_ID].cb(trans, dev);
 2214              		.loc 6 664 0
 2215 0d3c 2548     		ldr	r0, .L781+4
 2216              	.LVL206:
 2217 0d3e 2649     		ldr	r1, .L781+8
 2218              	.LVL207:
 2219 0d40 9847     		blx	r3
 2220              	.LVL208:
 2221              	.L203:
 665:/home/adamczer/paparazzi/var/aircrafts/Quad_LisaMX/ap/generated/periodic_telemetry.h **** #if USE_PERIODIC_TELEMETRY_REPORT
 666:/home/adamczer/paparazzi/var/aircrafts/Quad_LisaMX/ap/generated/periodic_telemetry.h ****       else periodic_telemetry_err_report(TELEMETRY_PROCESS_Main, telemetry_mode_Main, TELEMETRY_MAI
 667:/home/adamczer/paparazzi/var/aircrafts/Quad_LisaMX/ap/generated/periodic_telemetry.h **** #endif
 668:/home/adamczer/paparazzi/var/aircrafts/Quad_LisaMX/ap/generated/periodic_telemetry.h ****     }
 669:/home/adamczer/paparazzi/var/aircrafts/Quad_LisaMX/ap/generated/periodic_telemetry.h ****     if (i25 == 1) {
 2222              		.loc 6 669 0
 2223 0d42 9AF80030 		ldrb	r3, [r10]	@ zero_extendqisi2
 2224 0d46 012B     		cmp	r3, #1
 2225 0d48 07D1     		bne	.L189
 670:/home/adamczer/paparazzi/var/aircrafts/Quad_LisaMX/ap/generated/periodic_telemetry.h ****       if (telemetry_Main.msgs[TELEMETRY_MAIN_MSG_AHRS_REF_QUAT_ID].cb != NULL)
 2226              		.loc 6 670 0
 2227 0d4a 214B     		ldr	r3, .L781
 2228 0d4c 5B68     		ldr	r3, [r3, #4]
 2229 0d4e D3F86C37 		ldr	r3, [r3, #1900]
 2230 0d52 13B1     		cbz	r3, .L189
 671:/home/adamczer/paparazzi/var/aircrafts/Quad_LisaMX/ap/generated/periodic_telemetry.h ****         telemetry_Main.msgs[TELEMETRY_MAIN_MSG_AHRS_REF_QUAT_ID].cb(trans, dev);
 2231              		.loc 6 671 0
 2232 0d54 1F48     		ldr	r0, .L781+4
 2233              	.LVL209:
 2234 0d56 2049     		ldr	r1, .L781+8
 2235              	.LVL210:
 2236 0d58 9847     		blx	r3
 2237              	.LVL211:
 2238              	.L189:
 2239              	.LBE156:
 672:/home/adamczer/paparazzi/var/aircrafts/Quad_LisaMX/ap/generated/periodic_telemetry.h **** #if USE_PERIODIC_TELEMETRY_REPORT
 673:/home/adamczer/paparazzi/var/aircrafts/Quad_LisaMX/ap/generated/periodic_telemetry.h ****       else periodic_telemetry_err_report(TELEMETRY_PROCESS_Main, telemetry_mode_Main, TELEMETRY_MAI
 674:/home/adamczer/paparazzi/var/aircrafts/Quad_LisaMX/ap/generated/periodic_telemetry.h **** #endif
 675:/home/adamczer/paparazzi/var/aircrafts/Quad_LisaMX/ap/generated/periodic_telemetry.h ****     }
 676:/home/adamczer/paparazzi/var/aircrafts/Quad_LisaMX/ap/generated/periodic_telemetry.h ****   }
 677:/home/adamczer/paparazzi/var/aircrafts/Quad_LisaMX/ap/generated/periodic_telemetry.h ****   if (telemetry_mode_Main == TELEMETRY_MODE_Main_attitude_loop) {
 2240              		.loc 6 677 0
 2241 0d5a 2378     		ldrb	r3, [r4]	@ zero_extendqisi2
 2242 0d5c 072B     		cmp	r3, #7
 2243 0d5e 40F08580 		bne	.L206
 2244              	.LBB157:
 678:/home/adamczer/paparazzi/var/aircrafts/Quad_LisaMX/ap/generated/periodic_telemetry.h ****     static uint8_t i15 = 0; i15++; if (i15>=15) i15=0;
 2245              		.loc 6 678 0
 2246 0d62 DFF8ACA0 		ldr	r10, .L781+64
 679:/home/adamczer/paparazzi/var/aircrafts/Quad_LisaMX/ap/generated/periodic_telemetry.h ****     static uint16_t i256 = 0; i256++; if (i256>=256) i256=0;
 2247              		.loc 6 679 0
 2248 0d66 DFF8ACB0 		ldr	fp, .L781+68
 678:/home/adamczer/paparazzi/var/aircrafts/Quad_LisaMX/ap/generated/periodic_telemetry.h ****     static uint8_t i15 = 0; i15++; if (i15>=15) i15=0;
 2249              		.loc 6 678 0
 2250 0d6a 9AF80030 		ldrb	r3, [r10]	@ zero_extendqisi2
 680:/home/adamczer/paparazzi/var/aircrafts/Quad_LisaMX/ap/generated/periodic_telemetry.h ****     static uint16_t i460 = 0; i460++; if (i460>=460) i460=0;
 2251              		.loc 6 680 0
 2252 0d6e 224A     		ldr	r2, .L781+40
 681:/home/adamczer/paparazzi/var/aircrafts/Quad_LisaMX/ap/generated/periodic_telemetry.h ****     static uint16_t i614 = 0; i614++; if (i614>=614) i614=0;
 2253              		.loc 6 681 0
 2254 0d70 2249     		ldr	r1, .L781+44
 678:/home/adamczer/paparazzi/var/aircrafts/Quad_LisaMX/ap/generated/periodic_telemetry.h ****     static uint16_t i256 = 0; i256++; if (i256>=256) i256=0;
 2255              		.loc 6 678 0
 2256 0d72 0133     		adds	r3, r3, #1
 2257 0d74 DBB2     		uxtb	r3, r3
 2258 0d76 0E2B     		cmp	r3, #14
 2259 0d78 88BF     		it	hi
 2260 0d7a 0023     		movhi	r3, #0
 2261 0d7c 8AF80030 		strb	r3, [r10]
 679:/home/adamczer/paparazzi/var/aircrafts/Quad_LisaMX/ap/generated/periodic_telemetry.h ****     static uint16_t i460 = 0; i460++; if (i460>=460) i460=0;
 2262              		.loc 6 679 0
 2263 0d80 BBF80030 		ldrh	r3, [fp]
 2264 0d84 0133     		adds	r3, r3, #1
 2265 0d86 9BB2     		uxth	r3, r3
 2266 0d88 FF2B     		cmp	r3, #255
 2267 0d8a 88BF     		it	hi
 2268 0d8c 0023     		movhi	r3, #0
 2269 0d8e ABF80030 		strh	r3, [fp]	@ movhi
 680:/home/adamczer/paparazzi/var/aircrafts/Quad_LisaMX/ap/generated/periodic_telemetry.h ****     static uint16_t i614 = 0; i614++; if (i614>=614) i614=0;
 2270              		.loc 6 680 0
 2271 0d92 1388     		ldrh	r3, [r2]
 2272 0d94 0133     		adds	r3, r3, #1
 2273 0d96 9BB2     		uxth	r3, r3
 2274 0d98 B3F5E67F 		cmp	r3, #460
 2275 0d9c 28BF     		it	cs
 2276 0d9e 0023     		movcs	r3, #0
 2277 0da0 1380     		strh	r3, [r2]	@ movhi
 2278              		.loc 6 681 0
 2279 0da2 0B88     		ldrh	r3, [r1]
 2280 0da4 0133     		adds	r3, r3, #1
 2281 0da6 9BB2     		uxth	r3, r3
 2282 0da8 40F26520 		movw	r0, #613
 2283 0dac 8342     		cmp	r3, r0
 2284 0dae 88BF     		it	hi
 2285 0db0 0023     		movhi	r3, #0
 2286 0db2 0B80     		strh	r3, [r1]	@ movhi
 682:/home/adamczer/paparazzi/var/aircrafts/Quad_LisaMX/ap/generated/periodic_telemetry.h ****     if (i614 == 0) {
 2287              		.loc 6 682 0
 2288 0db4 0B88     		ldrh	r3, [r1]
 2289 0db6 7BBB     		cbnz	r3, .L215
 683:/home/adamczer/paparazzi/var/aircrafts/Quad_LisaMX/ap/generated/periodic_telemetry.h ****       if (telemetry_Main.msgs[TELEMETRY_MAIN_MSG_ROTORCRAFT_STATUS_ID].cb != NULL)
 2290              		.loc 6 683 0
 2291 0db8 054B     		ldr	r3, .L781
 2292 0dba 5B68     		ldr	r3, [r3, #4]
 2293 0dbc D3F88430 		ldr	r3, [r3, #132]
 2294 0dc0 53B3     		cbz	r3, .L215
 684:/home/adamczer/paparazzi/var/aircrafts/Quad_LisaMX/ap/generated/periodic_telemetry.h ****         telemetry_Main.msgs[TELEMETRY_MAIN_MSG_ROTORCRAFT_STATUS_ID].cb(trans, dev);
 2295              		.loc 6 684 0
 2296 0dc2 0448     		ldr	r0, .L781+4
 2297              	.LVL212:
 2298 0dc4 0449     		ldr	r1, .L781+8
 2299              	.LVL213:
 2300 0dc6 0592     		str	r2, [sp, #20]
 2301 0dc8 9847     		blx	r3
 2302              	.LVL214:
 2303 0dca 059A     		ldr	r2, [sp, #20]
 2304 0dcc 24E0     		b	.L782
 2305              	.L783:
 2306 0dce 00BF     		.align	2
 2307              	.L781:
 2308 0dd0 00000000 		.word	telemetry_Main
 2309 0dd4 08010000 		.word	pprz_tp+264
 2310 0dd8 28010000 		.word	uart2+296
 2311 0ddc 00000000 		.word	.LANCHOR44
 2312 0de0 00000000 		.word	.LANCHOR43
 2313 0de4 00000000 		.word	.LANCHOR51
 2314 0de8 00000000 		.word	.LANCHOR53
 2315 0dec 00000000 		.word	.LANCHOR56
 2316 0df0 00000000 		.word	.LANCHOR58
 2317 0df4 00000000 		.word	.LANCHOR57
 2318 0df8 00000000 		.word	.LANCHOR61
 2319 0dfc 00000000 		.word	.LANCHOR62
 2320 0e00 00000000 		.word	.LANCHOR50
 2321 0e04 00000000 		.word	.LANCHOR52
 2322 0e08 00000000 		.word	.LANCHOR54
 2323 0e0c 00000000 		.word	.LANCHOR55
 2324 0e10 00000000 		.word	.LANCHOR59
 2325 0e14 00000000 		.word	.LANCHOR60
 2326              	.L782:
 2327              	.L215:
 685:/home/adamczer/paparazzi/var/aircrafts/Quad_LisaMX/ap/generated/periodic_telemetry.h **** #if USE_PERIODIC_TELEMETRY_REPORT
 686:/home/adamczer/paparazzi/var/aircrafts/Quad_LisaMX/ap/generated/periodic_telemetry.h ****       else periodic_telemetry_err_report(TELEMETRY_PROCESS_Main, telemetry_mode_Main, TELEMETRY_MAI
 687:/home/adamczer/paparazzi/var/aircrafts/Quad_LisaMX/ap/generated/periodic_telemetry.h **** #endif
 688:/home/adamczer/paparazzi/var/aircrafts/Quad_LisaMX/ap/generated/periodic_telemetry.h ****     }
 689:/home/adamczer/paparazzi/var/aircrafts/Quad_LisaMX/ap/generated/periodic_telemetry.h ****     if (i460 == 51) {
 2328              		.loc 6 689 0
 2329 0e18 1388     		ldrh	r3, [r2]
 2330 0e1a 332B     		cmp	r3, #51
 2331 0e1c 07D1     		bne	.L216
 690:/home/adamczer/paparazzi/var/aircrafts/Quad_LisaMX/ap/generated/periodic_telemetry.h ****       if (telemetry_Main.msgs[TELEMETRY_MAIN_MSG_ALIVE_ID].cb != NULL)
 2332              		.loc 6 690 0
 2333 0e1e 514B     		ldr	r3, .L784
 2334 0e20 5B68     		ldr	r3, [r3, #4]
 2335 0e22 D3F8F03B 		ldr	r3, [r3, #3056]
 2336 0e26 13B1     		cbz	r3, .L216
 691:/home/adamczer/paparazzi/var/aircrafts/Quad_LisaMX/ap/generated/periodic_telemetry.h ****         telemetry_Main.msgs[TELEMETRY_MAIN_MSG_ALIVE_ID].cb(trans, dev);
 2337              		.loc 6 691 0
 2338 0e28 4F48     		ldr	r0, .L784+4
 2339              	.LVL215:
 2340 0e2a 5049     		ldr	r1, .L784+8
 2341              	.LVL216:
 2342 0e2c 9847     		blx	r3
 2343              	.LVL217:
 2344              	.L216:
 692:/home/adamczer/paparazzi/var/aircrafts/Quad_LisaMX/ap/generated/periodic_telemetry.h **** #if USE_PERIODIC_TELEMETRY_REPORT
 693:/home/adamczer/paparazzi/var/aircrafts/Quad_LisaMX/ap/generated/periodic_telemetry.h ****       else periodic_telemetry_err_report(TELEMETRY_PROCESS_Main, telemetry_mode_Main, TELEMETRY_MAI
 694:/home/adamczer/paparazzi/var/aircrafts/Quad_LisaMX/ap/generated/periodic_telemetry.h **** #endif
 695:/home/adamczer/paparazzi/var/aircrafts/Quad_LisaMX/ap/generated/periodic_telemetry.h ****     }
 696:/home/adamczer/paparazzi/var/aircrafts/Quad_LisaMX/ap/generated/periodic_telemetry.h ****     if (i256 == 102) {
 2345              		.loc 6 696 0
 2346 0e2e BBF80030 		ldrh	r3, [fp]
 2347 0e32 662B     		cmp	r3, #102
 2348 0e34 07D1     		bne	.L217
 697:/home/adamczer/paparazzi/var/aircrafts/Quad_LisaMX/ap/generated/periodic_telemetry.h ****       if (telemetry_Main.msgs[TELEMETRY_MAIN_MSG_DL_VALUE_ID].cb != NULL)
 2349              		.loc 6 697 0
 2350 0e36 4B4B     		ldr	r3, .L784
 2351 0e38 5B68     		ldr	r3, [r3, #4]
 2352 0e3a D3F8783C 		ldr	r3, [r3, #3192]
 2353 0e3e 13B1     		cbz	r3, .L217
 698:/home/adamczer/paparazzi/var/aircrafts/Quad_LisaMX/ap/generated/periodic_telemetry.h ****         telemetry_Main.msgs[TELEMETRY_MAIN_MSG_DL_VALUE_ID].cb(trans, dev);
 2354              		.loc 6 698 0
 2355 0e40 4948     		ldr	r0, .L784+4
 2356              	.LVL218:
 2357 0e42 4A49     		ldr	r1, .L784+8
 2358              	.LVL219:
 2359 0e44 9847     		blx	r3
 2360              	.LVL220:
 2361              	.L217:
 699:/home/adamczer/paparazzi/var/aircrafts/Quad_LisaMX/ap/generated/periodic_telemetry.h **** #if USE_PERIODIC_TELEMETRY_REPORT
 700:/home/adamczer/paparazzi/var/aircrafts/Quad_LisaMX/ap/generated/periodic_telemetry.h ****       else periodic_telemetry_err_report(TELEMETRY_PROCESS_Main, telemetry_mode_Main, TELEMETRY_MAI
 701:/home/adamczer/paparazzi/var/aircrafts/Quad_LisaMX/ap/generated/periodic_telemetry.h **** #endif
 702:/home/adamczer/paparazzi/var/aircrafts/Quad_LisaMX/ap/generated/periodic_telemetry.h ****     }
 703:/home/adamczer/paparazzi/var/aircrafts/Quad_LisaMX/ap/generated/periodic_telemetry.h ****     if (i15 == 3) {
 2362              		.loc 6 703 0
 2363 0e46 9AF80030 		ldrb	r3, [r10]	@ zero_extendqisi2
 2364 0e4a 032B     		cmp	r3, #3
 2365 0e4c 04D1     		bne	.L218
 704:/home/adamczer/paparazzi/var/aircrafts/Quad_LisaMX/ap/generated/periodic_telemetry.h ****       if (telemetry_Main.msgs[TELEMETRY_MAIN_MSG_STAB_ATTITUDE_REF_ID].cb != NULL)
 2366              		.loc 6 704 0
 2367 0e4e 454B     		ldr	r3, .L784
 2368 0e50 5B68     		ldr	r3, [r3, #4]
 2369 0e52 D3F8143A 		ldr	r3, [r3, #2580]
 2370 0e56 05E0     		b	.L760
 2371              	.L218:
 705:/home/adamczer/paparazzi/var/aircrafts/Quad_LisaMX/ap/generated/periodic_telemetry.h ****         telemetry_Main.msgs[TELEMETRY_MAIN_MSG_STAB_ATTITUDE_REF_ID].cb(trans, dev);
 706:/home/adamczer/paparazzi/var/aircrafts/Quad_LisaMX/ap/generated/periodic_telemetry.h **** #if USE_PERIODIC_TELEMETRY_REPORT
 707:/home/adamczer/paparazzi/var/aircrafts/Quad_LisaMX/ap/generated/periodic_telemetry.h ****       else periodic_telemetry_err_report(TELEMETRY_PROCESS_Main, telemetry_mode_Main, TELEMETRY_MAI
 708:/home/adamczer/paparazzi/var/aircrafts/Quad_LisaMX/ap/generated/periodic_telemetry.h **** #endif
 709:/home/adamczer/paparazzi/var/aircrafts/Quad_LisaMX/ap/generated/periodic_telemetry.h ****     }
 710:/home/adamczer/paparazzi/var/aircrafts/Quad_LisaMX/ap/generated/periodic_telemetry.h ****     else if (i15 == 9) {
 2372              		.loc 6 710 0
 2373 0e58 092B     		cmp	r3, #9
 2374 0e5a 07D1     		bne	.L206
 711:/home/adamczer/paparazzi/var/aircrafts/Quad_LisaMX/ap/generated/periodic_telemetry.h ****       if (telemetry_Main.msgs[TELEMETRY_MAIN_MSG_STAB_ATTITUDE_ID].cb != NULL)
 2375              		.loc 6 711 0
 2376 0e5c 414B     		ldr	r3, .L784
 2377 0e5e 5B68     		ldr	r3, [r3, #4]
 2378 0e60 D3F88034 		ldr	r3, [r3, #1152]
 2379              	.L760:
 2380 0e64 13B1     		cbz	r3, .L206
 712:/home/adamczer/paparazzi/var/aircrafts/Quad_LisaMX/ap/generated/periodic_telemetry.h ****         telemetry_Main.msgs[TELEMETRY_MAIN_MSG_STAB_ATTITUDE_ID].cb(trans, dev);
 2381              		.loc 6 712 0
 2382 0e66 4048     		ldr	r0, .L784+4
 2383              	.LVL221:
 2384 0e68 4049     		ldr	r1, .L784+8
 2385              	.LVL222:
 2386 0e6a 9847     		blx	r3
 2387              	.LVL223:
 2388              	.L206:
 2389              	.LBE157:
 713:/home/adamczer/paparazzi/var/aircrafts/Quad_LisaMX/ap/generated/periodic_telemetry.h **** #if USE_PERIODIC_TELEMETRY_REPORT
 714:/home/adamczer/paparazzi/var/aircrafts/Quad_LisaMX/ap/generated/periodic_telemetry.h ****       else periodic_telemetry_err_report(TELEMETRY_PROCESS_Main, telemetry_mode_Main, TELEMETRY_MAI
 715:/home/adamczer/paparazzi/var/aircrafts/Quad_LisaMX/ap/generated/periodic_telemetry.h **** #endif
 716:/home/adamczer/paparazzi/var/aircrafts/Quad_LisaMX/ap/generated/periodic_telemetry.h ****     }
 717:/home/adamczer/paparazzi/var/aircrafts/Quad_LisaMX/ap/generated/periodic_telemetry.h ****   }
 718:/home/adamczer/paparazzi/var/aircrafts/Quad_LisaMX/ap/generated/periodic_telemetry.h ****   if (telemetry_mode_Main == TELEMETRY_MODE_Main_vert_loop) {
 2390              		.loc 6 718 0
 2391 0e6c 2378     		ldrb	r3, [r4]	@ zero_extendqisi2
 2392 0e6e 082B     		cmp	r3, #8
 2393 0e70 40F09280 		bne	.L221
 2394              	.LBB158:
 719:/home/adamczer/paparazzi/var/aircrafts/Quad_LisaMX/ap/generated/periodic_telemetry.h ****     static uint8_t i25 = 0; i25++; if (i25>=25) i25=0;
 2395              		.loc 6 719 0
 2396 0e74 DFF804A1 		ldr	r10, .L784+24
 720:/home/adamczer/paparazzi/var/aircrafts/Quad_LisaMX/ap/generated/periodic_telemetry.h ****     static uint16_t i256 = 0; i256++; if (i256>=256) i256=0;
 2397              		.loc 6 720 0
 2398 0e78 3D4A     		ldr	r2, .L784+12
 719:/home/adamczer/paparazzi/var/aircrafts/Quad_LisaMX/ap/generated/periodic_telemetry.h ****     static uint8_t i25 = 0; i25++; if (i25>=25) i25=0;
 2399              		.loc 6 719 0
 2400 0e7a 9AF80030 		ldrb	r3, [r10]	@ zero_extendqisi2
 721:/home/adamczer/paparazzi/var/aircrafts/Quad_LisaMX/ap/generated/periodic_telemetry.h ****     static uint16_t i460 = 0; i460++; if (i460>=460) i460=0;
 722:/home/adamczer/paparazzi/var/aircrafts/Quad_LisaMX/ap/generated/periodic_telemetry.h ****     static uint16_t i614 = 0; i614++; if (i614>=614) i614=0;
 2401              		.loc 6 722 0
 2402 0e7e DFF800B1 		ldr	fp, .L784+28
 719:/home/adamczer/paparazzi/var/aircrafts/Quad_LisaMX/ap/generated/periodic_telemetry.h ****     static uint16_t i256 = 0; i256++; if (i256>=256) i256=0;
 2403              		.loc 6 719 0
 2404 0e82 0133     		adds	r3, r3, #1
 2405 0e84 DBB2     		uxtb	r3, r3
 2406 0e86 182B     		cmp	r3, #24
 2407 0e88 88BF     		it	hi
 2408 0e8a 0023     		movhi	r3, #0
 2409 0e8c 8AF80030 		strb	r3, [r10]
 720:/home/adamczer/paparazzi/var/aircrafts/Quad_LisaMX/ap/generated/periodic_telemetry.h ****     static uint16_t i256 = 0; i256++; if (i256>=256) i256=0;
 2410              		.loc 6 720 0
 2411 0e90 1388     		ldrh	r3, [r2]
 2412 0e92 0133     		adds	r3, r3, #1
 2413 0e94 9BB2     		uxth	r3, r3
 2414 0e96 FF2B     		cmp	r3, #255
 2415 0e98 88BF     		it	hi
 2416 0e9a 0023     		movhi	r3, #0
 2417 0e9c 1380     		strh	r3, [r2]	@ movhi
 721:/home/adamczer/paparazzi/var/aircrafts/Quad_LisaMX/ap/generated/periodic_telemetry.h ****     static uint16_t i460 = 0; i460++; if (i460>=460) i460=0;
 2418              		.loc 6 721 0
 2419 0e9e 354A     		ldr	r2, .L784+16
 2420 0ea0 1388     		ldrh	r3, [r2]
 2421 0ea2 0133     		adds	r3, r3, #1
 2422 0ea4 9BB2     		uxth	r3, r3
 2423 0ea6 B3F5E67F 		cmp	r3, #460
 2424 0eaa 28BF     		it	cs
 2425 0eac 0023     		movcs	r3, #0
 2426 0eae 1380     		strh	r3, [r2]	@ movhi
 2427              		.loc 6 722 0
 2428 0eb0 BBF80030 		ldrh	r3, [fp]
 2429 0eb4 0133     		adds	r3, r3, #1
 2430 0eb6 9BB2     		uxth	r3, r3
 2431 0eb8 40F26522 		movw	r2, #613
 2432 0ebc 9342     		cmp	r3, r2
 723:/home/adamczer/paparazzi/var/aircrafts/Quad_LisaMX/ap/generated/periodic_telemetry.h ****     static uint16_t i2611 = 0; i2611++; if (i2611>=2611) i2611=0;
 2433              		.loc 6 723 0
 2434 0ebe 2E4A     		ldr	r2, .L784+20
 722:/home/adamczer/paparazzi/var/aircrafts/Quad_LisaMX/ap/generated/periodic_telemetry.h ****     static uint16_t i2611 = 0; i2611++; if (i2611>=2611) i2611=0;
 2435              		.loc 6 722 0
 2436 0ec0 88BF     		it	hi
 2437 0ec2 0023     		movhi	r3, #0
 2438 0ec4 ABF80030 		strh	r3, [fp]	@ movhi
 2439              		.loc 6 723 0
 2440 0ec8 1388     		ldrh	r3, [r2]
 2441 0eca 0133     		adds	r3, r3, #1
 2442 0ecc 9BB2     		uxth	r3, r3
 2443 0ece 40F63221 		movw	r1, #2610
 2444 0ed2 8B42     		cmp	r3, r1
 2445 0ed4 88BF     		it	hi
 2446 0ed6 0023     		movhi	r3, #0
 2447 0ed8 1380     		strh	r3, [r2]	@ movhi
 724:/home/adamczer/paparazzi/var/aircrafts/Quad_LisaMX/ap/generated/periodic_telemetry.h ****     if (i2611 == 0) {
 2448              		.loc 6 724 0
 2449 0eda 1388     		ldrh	r3, [r2]
 2450 0edc 3BB9     		cbnz	r3, .L232
 725:/home/adamczer/paparazzi/var/aircrafts/Quad_LisaMX/ap/generated/periodic_telemetry.h ****       if (telemetry_Main.msgs[TELEMETRY_MAIN_MSG_INS_REF_ID].cb != NULL)
 2451              		.loc 6 725 0
 2452 0ede 214B     		ldr	r3, .L784
 2453 0ee0 5B68     		ldr	r3, [r3, #4]
 2454 0ee2 D3F8443D 		ldr	r3, [r3, #3396]
 2455 0ee6 13B1     		cbz	r3, .L232
 726:/home/adamczer/paparazzi/var/aircrafts/Quad_LisaMX/ap/generated/periodic_telemetry.h ****         telemetry_Main.msgs[TELEMETRY_MAIN_MSG_INS_REF_ID].cb(trans, dev);
 2456              		.loc 6 726 0
 2457 0ee8 1F48     		ldr	r0, .L784+4
 2458              	.LVL224:
 2459 0eea 2049     		ldr	r1, .L784+8
 2460              	.LVL225:
 2461 0eec 9847     		blx	r3
 2462              	.LVL226:
 2463              	.L232:
 727:/home/adamczer/paparazzi/var/aircrafts/Quad_LisaMX/ap/generated/periodic_telemetry.h **** #if USE_PERIODIC_TELEMETRY_REPORT
 728:/home/adamczer/paparazzi/var/aircrafts/Quad_LisaMX/ap/generated/periodic_telemetry.h ****       else periodic_telemetry_err_report(TELEMETRY_PROCESS_Main, telemetry_mode_Main, TELEMETRY_MAI
 729:/home/adamczer/paparazzi/var/aircrafts/Quad_LisaMX/ap/generated/periodic_telemetry.h **** #endif
 730:/home/adamczer/paparazzi/var/aircrafts/Quad_LisaMX/ap/generated/periodic_telemetry.h ****     }
 731:/home/adamczer/paparazzi/var/aircrafts/Quad_LisaMX/ap/generated/periodic_telemetry.h ****     if (i614 == 51) {
 2464              		.loc 6 731 0
 2465 0eee BBF80030 		ldrh	r3, [fp]
 2466 0ef2 332B     		cmp	r3, #51
 2467 0ef4 07D1     		bne	.L233
 732:/home/adamczer/paparazzi/var/aircrafts/Quad_LisaMX/ap/generated/periodic_telemetry.h ****       if (telemetry_Main.msgs[TELEMETRY_MAIN_MSG_ROTORCRAFT_STATUS_ID].cb != NULL)
 2468              		.loc 6 732 0
 2469 0ef6 1B4B     		ldr	r3, .L784
 2470 0ef8 5B68     		ldr	r3, [r3, #4]
 2471 0efa D3F88430 		ldr	r3, [r3, #132]
 2472 0efe 13B1     		cbz	r3, .L233
 733:/home/adamczer/paparazzi/var/aircrafts/Quad_LisaMX/ap/generated/periodic_telemetry.h ****         telemetry_Main.msgs[TELEMETRY_MAIN_MSG_ROTORCRAFT_STATUS_ID].cb(trans, dev);
 2473              		.loc 6 733 0
 2474 0f00 1948     		ldr	r0, .L784+4
 2475              	.LVL227:
 2476 0f02 1A49     		ldr	r1, .L784+8
 2477              	.LVL228:
 2478 0f04 9847     		blx	r3
 2479              	.LVL229:
 2480              	.L233:
 734:/home/adamczer/paparazzi/var/aircrafts/Quad_LisaMX/ap/generated/periodic_telemetry.h **** #if USE_PERIODIC_TELEMETRY_REPORT
 735:/home/adamczer/paparazzi/var/aircrafts/Quad_LisaMX/ap/generated/periodic_telemetry.h ****       else periodic_telemetry_err_report(TELEMETRY_PROCESS_Main, telemetry_mode_Main, TELEMETRY_MAI
 736:/home/adamczer/paparazzi/var/aircrafts/Quad_LisaMX/ap/generated/periodic_telemetry.h **** #endif
 737:/home/adamczer/paparazzi/var/aircrafts/Quad_LisaMX/ap/generated/periodic_telemetry.h ****     }
 738:/home/adamczer/paparazzi/var/aircrafts/Quad_LisaMX/ap/generated/periodic_telemetry.h ****     if (i460 == 102) {
 2481              		.loc 6 738 0
 2482 0f06 1B4B     		ldr	r3, .L784+16
 2483 0f08 1B88     		ldrh	r3, [r3]
 2484 0f0a 662B     		cmp	r3, #102
 2485 0f0c 07D1     		bne	.L234
 739:/home/adamczer/paparazzi/var/aircrafts/Quad_LisaMX/ap/generated/periodic_telemetry.h ****       if (telemetry_Main.msgs[TELEMETRY_MAIN_MSG_ALIVE_ID].cb != NULL)
 2486              		.loc 6 739 0
 2487 0f0e 154B     		ldr	r3, .L784
 2488 0f10 5B68     		ldr	r3, [r3, #4]
 2489 0f12 D3F8F03B 		ldr	r3, [r3, #3056]
 2490 0f16 13B1     		cbz	r3, .L234
 740:/home/adamczer/paparazzi/var/aircrafts/Quad_LisaMX/ap/generated/periodic_telemetry.h ****         telemetry_Main.msgs[TELEMETRY_MAIN_MSG_ALIVE_ID].cb(trans, dev);
 2491              		.loc 6 740 0
 2492 0f18 1348     		ldr	r0, .L784+4
 2493              	.LVL230:
 2494 0f1a 1449     		ldr	r1, .L784+8
 2495              	.LVL231:
 2496 0f1c 9847     		blx	r3
 2497              	.LVL232:
 2498              	.L234:
 741:/home/adamczer/paparazzi/var/aircrafts/Quad_LisaMX/ap/generated/periodic_telemetry.h **** #if USE_PERIODIC_TELEMETRY_REPORT
 742:/home/adamczer/paparazzi/var/aircrafts/Quad_LisaMX/ap/generated/periodic_telemetry.h ****       else periodic_telemetry_err_report(TELEMETRY_PROCESS_Main, telemetry_mode_Main, TELEMETRY_MAI
 743:/home/adamczer/paparazzi/var/aircrafts/Quad_LisaMX/ap/generated/periodic_telemetry.h **** #endif
 744:/home/adamczer/paparazzi/var/aircrafts/Quad_LisaMX/ap/generated/periodic_telemetry.h ****     }
 745:/home/adamczer/paparazzi/var/aircrafts/Quad_LisaMX/ap/generated/periodic_telemetry.h ****     if (i256 == 153) {
 2499              		.loc 6 745 0
 2500 0f1e 144B     		ldr	r3, .L784+12
 2501 0f20 1B88     		ldrh	r3, [r3]
 2502 0f22 992B     		cmp	r3, #153
 2503 0f24 07D1     		bne	.L235
 746:/home/adamczer/paparazzi/var/aircrafts/Quad_LisaMX/ap/generated/periodic_telemetry.h ****       if (telemetry_Main.msgs[TELEMETRY_MAIN_MSG_DL_VALUE_ID].cb != NULL)
 2504              		.loc 6 746 0
 2505 0f26 0F4B     		ldr	r3, .L784
 2506 0f28 5B68     		ldr	r3, [r3, #4]
 2507 0f2a D3F8783C 		ldr	r3, [r3, #3192]
 2508 0f2e 13B1     		cbz	r3, .L235
 747:/home/adamczer/paparazzi/var/aircrafts/Quad_LisaMX/ap/generated/periodic_telemetry.h ****         telemetry_Main.msgs[TELEMETRY_MAIN_MSG_DL_VALUE_ID].cb(trans, dev);
 2509              		.loc 6 747 0
 2510 0f30 0D48     		ldr	r0, .L784+4
 2511              	.LVL233:
 2512 0f32 0E49     		ldr	r1, .L784+8
 2513              	.LVL234:
 2514 0f34 9847     		blx	r3
 2515              	.LVL235:
 2516              	.L235:
 748:/home/adamczer/paparazzi/var/aircrafts/Quad_LisaMX/ap/generated/periodic_telemetry.h **** #if USE_PERIODIC_TELEMETRY_REPORT
 749:/home/adamczer/paparazzi/var/aircrafts/Quad_LisaMX/ap/generated/periodic_telemetry.h ****       else periodic_telemetry_err_report(TELEMETRY_PROCESS_Main, telemetry_mode_Main, TELEMETRY_MAI
 750:/home/adamczer/paparazzi/var/aircrafts/Quad_LisaMX/ap/generated/periodic_telemetry.h **** #endif
 751:/home/adamczer/paparazzi/var/aircrafts/Quad_LisaMX/ap/generated/periodic_telemetry.h ****     }
 752:/home/adamczer/paparazzi/var/aircrafts/Quad_LisaMX/ap/generated/periodic_telemetry.h ****     if (i25 == 4) {
 2517              		.loc 6 752 0
 2518 0f36 9AF80030 		ldrb	r3, [r10]	@ zero_extendqisi2
 2519 0f3a 042B     		cmp	r3, #4
 2520 0f3c 04D1     		bne	.L236
 753:/home/adamczer/paparazzi/var/aircrafts/Quad_LisaMX/ap/generated/periodic_telemetry.h ****       if (telemetry_Main.msgs[TELEMETRY_MAIN_MSG_INS_ID].cb != NULL)
 2521              		.loc 6 753 0
 2522 0f3e 094B     		ldr	r3, .L784
 2523 0f40 5B68     		ldr	r3, [r3, #4]
 2524 0f42 D3F89035 		ldr	r3, [r3, #1424]
 2525 0f46 23E0     		b	.L762
 2526              	.L236:
 754:/home/adamczer/paparazzi/var/aircrafts/Quad_LisaMX/ap/generated/periodic_telemetry.h ****         telemetry_Main.msgs[TELEMETRY_MAIN_MSG_INS_ID].cb(trans, dev);
 755:/home/adamczer/paparazzi/var/aircrafts/Quad_LisaMX/ap/generated/periodic_telemetry.h **** #if USE_PERIODIC_TELEMETRY_REPORT
 756:/home/adamczer/paparazzi/var/aircrafts/Quad_LisaMX/ap/generated/periodic_telemetry.h ****       else periodic_telemetry_err_report(TELEMETRY_PROCESS_Main, telemetry_mode_Main, TELEMETRY_MAI
 757:/home/adamczer/paparazzi/var/aircrafts/Quad_LisaMX/ap/generated/periodic_telemetry.h **** #endif
 758:/home/adamczer/paparazzi/var/aircrafts/Quad_LisaMX/ap/generated/periodic_telemetry.h ****     }
 759:/home/adamczer/paparazzi/var/aircrafts/Quad_LisaMX/ap/generated/periodic_telemetry.h ****     else if (i25 == 5) {
 2527              		.loc 6 759 0
 2528 0f48 052B     		cmp	r3, #5
 2529 0f4a 04D1     		bne	.L238
 760:/home/adamczer/paparazzi/var/aircrafts/Quad_LisaMX/ap/generated/periodic_telemetry.h ****       if (telemetry_Main.msgs[TELEMETRY_MAIN_MSG_VERT_LOOP_ID].cb != NULL)
 2530              		.loc 6 760 0
 2531 0f4c 054B     		ldr	r3, .L784
 2532 0f4e 5B68     		ldr	r3, [r3, #4]
 2533 0f50 D3F83C34 		ldr	r3, [r3, #1084]
 2534 0f54 1CE0     		b	.L762
 2535              	.L238:
 761:/home/adamczer/paparazzi/var/aircrafts/Quad_LisaMX/ap/generated/periodic_telemetry.h ****         telemetry_Main.msgs[TELEMETRY_MAIN_MSG_VERT_LOOP_ID].cb(trans, dev);
 762:/home/adamczer/paparazzi/var/aircrafts/Quad_LisaMX/ap/generated/periodic_telemetry.h **** #if USE_PERIODIC_TELEMETRY_REPORT
 763:/home/adamczer/paparazzi/var/aircrafts/Quad_LisaMX/ap/generated/periodic_telemetry.h ****       else periodic_telemetry_err_report(TELEMETRY_PROCESS_Main, telemetry_mode_Main, TELEMETRY_MAI
 764:/home/adamczer/paparazzi/var/aircrafts/Quad_LisaMX/ap/generated/periodic_telemetry.h **** #endif
 765:/home/adamczer/paparazzi/var/aircrafts/Quad_LisaMX/ap/generated/periodic_telemetry.h ****     }
 766:/home/adamczer/paparazzi/var/aircrafts/Quad_LisaMX/ap/generated/periodic_telemetry.h ****     else if (i25 == 6) {
 2536              		.loc 6 766 0
 2537 0f56 062B     		cmp	r3, #6
 2538 0f58 14D1     		bne	.L239
 767:/home/adamczer/paparazzi/var/aircrafts/Quad_LisaMX/ap/generated/periodic_telemetry.h ****       if (telemetry_Main.msgs[TELEMETRY_MAIN_MSG_VFF_EXTENDED_ID].cb != NULL)
 2539              		.loc 6 767 0
 2540 0f5a 024B     		ldr	r3, .L784
 2541 0f5c 5B68     		ldr	r3, [r3, #4]
 2542 0f5e D3F82837 		ldr	r3, [r3, #1832]
 2543 0f62 15E0     		b	.L762
 2544              	.L785:
 2545              		.align	2
 2546              	.L784:
 2547 0f64 00000000 		.word	telemetry_Main
 2548 0f68 08010000 		.word	pprz_tp+264
 2549 0f6c 28010000 		.word	uart2+296
 2550 0f70 00000000 		.word	.LANCHOR64
 2551 0f74 00000000 		.word	.LANCHOR65
 2552 0f78 00000000 		.word	.LANCHOR67
 2553 0f7c 00000000 		.word	.LANCHOR63
 2554 0f80 00000000 		.word	.LANCHOR66
 2555              	.L239:
 768:/home/adamczer/paparazzi/var/aircrafts/Quad_LisaMX/ap/generated/periodic_telemetry.h ****         telemetry_Main.msgs[TELEMETRY_MAIN_MSG_VFF_EXTENDED_ID].cb(trans, dev);
 769:/home/adamczer/paparazzi/var/aircrafts/Quad_LisaMX/ap/generated/periodic_telemetry.h **** #if USE_PERIODIC_TELEMETRY_REPORT
 770:/home/adamczer/paparazzi/var/aircrafts/Quad_LisaMX/ap/generated/periodic_telemetry.h ****       else periodic_telemetry_err_report(TELEMETRY_PROCESS_Main, telemetry_mode_Main, TELEMETRY_MAI
 771:/home/adamczer/paparazzi/var/aircrafts/Quad_LisaMX/ap/generated/periodic_telemetry.h **** #endif
 772:/home/adamczer/paparazzi/var/aircrafts/Quad_LisaMX/ap/generated/periodic_telemetry.h ****     }
 773:/home/adamczer/paparazzi/var/aircrafts/Quad_LisaMX/ap/generated/periodic_telemetry.h ****     else if (i25 == 7) {
 2556              		.loc 6 773 0
 2557 0f84 072B     		cmp	r3, #7
 2558 0f86 07D1     		bne	.L221
 774:/home/adamczer/paparazzi/var/aircrafts/Quad_LisaMX/ap/generated/periodic_telemetry.h ****       if (telemetry_Main.msgs[TELEMETRY_MAIN_MSG_VFF_ID].cb != NULL)
 2559              		.loc 6 774 0
 2560 0f88 614B     		ldr	r3, .L786
 2561 0f8a 5B68     		ldr	r3, [r3, #4]
 2562 0f8c D3F8E832 		ldr	r3, [r3, #744]
 2563              	.L762:
 2564 0f90 13B1     		cbz	r3, .L221
 775:/home/adamczer/paparazzi/var/aircrafts/Quad_LisaMX/ap/generated/periodic_telemetry.h ****         telemetry_Main.msgs[TELEMETRY_MAIN_MSG_VFF_ID].cb(trans, dev);
 2565              		.loc 6 775 0
 2566 0f92 6048     		ldr	r0, .L786+4
 2567              	.LVL236:
 2568 0f94 6049     		ldr	r1, .L786+8
 2569              	.LVL237:
 2570 0f96 9847     		blx	r3
 2571              	.LVL238:
 2572              	.L221:
 2573              	.LBE158:
 776:/home/adamczer/paparazzi/var/aircrafts/Quad_LisaMX/ap/generated/periodic_telemetry.h **** #if USE_PERIODIC_TELEMETRY_REPORT
 777:/home/adamczer/paparazzi/var/aircrafts/Quad_LisaMX/ap/generated/periodic_telemetry.h ****       else periodic_telemetry_err_report(TELEMETRY_PROCESS_Main, telemetry_mode_Main, TELEMETRY_MAI
 778:/home/adamczer/paparazzi/var/aircrafts/Quad_LisaMX/ap/generated/periodic_telemetry.h **** #endif
 779:/home/adamczer/paparazzi/var/aircrafts/Quad_LisaMX/ap/generated/periodic_telemetry.h ****     }
 780:/home/adamczer/paparazzi/var/aircrafts/Quad_LisaMX/ap/generated/periodic_telemetry.h ****   }
 781:/home/adamczer/paparazzi/var/aircrafts/Quad_LisaMX/ap/generated/periodic_telemetry.h ****   if (telemetry_mode_Main == TELEMETRY_MODE_Main_h_loop) {
 2574              		.loc 6 781 0
 2575 0f98 2378     		ldrb	r3, [r4]	@ zero_extendqisi2
 2576 0f9a 092B     		cmp	r3, #9
 2577 0f9c 40F0F480 		bne	.L241
 2578              	.LBB159:
 782:/home/adamczer/paparazzi/var/aircrafts/Quad_LisaMX/ap/generated/periodic_telemetry.h ****     static uint8_t i15 = 0; i15++; if (i15>=15) i15=0;
 2579              		.loc 6 782 0
 2580 0fa0 DFF898A1 		ldr	r10, .L786+44
 783:/home/adamczer/paparazzi/var/aircrafts/Quad_LisaMX/ap/generated/periodic_telemetry.h ****     static uint8_t i25 = 0; i25++; if (i25>=25) i25=0;
 2581              		.loc 6 783 0
 2582 0fa4 5D4A     		ldr	r2, .L786+12
 782:/home/adamczer/paparazzi/var/aircrafts/Quad_LisaMX/ap/generated/periodic_telemetry.h ****     static uint8_t i15 = 0; i15++; if (i15>=15) i15=0;
 2583              		.loc 6 782 0
 2584 0fa6 9AF80030 		ldrb	r3, [r10]	@ zero_extendqisi2
 784:/home/adamczer/paparazzi/var/aircrafts/Quad_LisaMX/ap/generated/periodic_telemetry.h ****     static uint8_t i31 = 0; i31++; if (i31>=31) i31=0;
 785:/home/adamczer/paparazzi/var/aircrafts/Quad_LisaMX/ap/generated/periodic_telemetry.h ****     static uint8_t i102 = 0; i102++; if (i102>=102) i102=0;
 786:/home/adamczer/paparazzi/var/aircrafts/Quad_LisaMX/ap/generated/periodic_telemetry.h ****     static uint8_t i204 = 0; i204++; if (i204>=204) i204=0;
 787:/home/adamczer/paparazzi/var/aircrafts/Quad_LisaMX/ap/generated/periodic_telemetry.h ****     static uint16_t i409 = 0; i409++; if (i409>=409) i409=0;
 788:/home/adamczer/paparazzi/var/aircrafts/Quad_LisaMX/ap/generated/periodic_telemetry.h ****     static uint16_t i460 = 0; i460++; if (i460>=460) i460=0;
 789:/home/adamczer/paparazzi/var/aircrafts/Quad_LisaMX/ap/generated/periodic_telemetry.h ****     static uint16_t i614 = 0; i614++; if (i614>=614) i614=0;
 790:/home/adamczer/paparazzi/var/aircrafts/Quad_LisaMX/ap/generated/periodic_telemetry.h ****     static uint16_t i819 = 0; i819++; if (i819>=819) i819=0;
 2585              		.loc 6 790 0
 2586 0faa DFF894B1 		ldr	fp, .L786+48
 782:/home/adamczer/paparazzi/var/aircrafts/Quad_LisaMX/ap/generated/periodic_telemetry.h ****     static uint8_t i25 = 0; i25++; if (i25>=25) i25=0;
 2587              		.loc 6 782 0
 2588 0fae 0133     		adds	r3, r3, #1
 2589 0fb0 DBB2     		uxtb	r3, r3
 2590 0fb2 0E2B     		cmp	r3, #14
 2591 0fb4 88BF     		it	hi
 2592 0fb6 0023     		movhi	r3, #0
 2593 0fb8 8AF80030 		strb	r3, [r10]
 783:/home/adamczer/paparazzi/var/aircrafts/Quad_LisaMX/ap/generated/periodic_telemetry.h ****     static uint8_t i25 = 0; i25++; if (i25>=25) i25=0;
 2594              		.loc 6 783 0
 2595 0fbc 1378     		ldrb	r3, [r2]	@ zero_extendqisi2
 2596 0fbe 0133     		adds	r3, r3, #1
 2597 0fc0 DBB2     		uxtb	r3, r3
 2598 0fc2 182B     		cmp	r3, #24
 2599 0fc4 88BF     		it	hi
 2600 0fc6 0023     		movhi	r3, #0
 2601 0fc8 1370     		strb	r3, [r2]
 784:/home/adamczer/paparazzi/var/aircrafts/Quad_LisaMX/ap/generated/periodic_telemetry.h ****     static uint8_t i31 = 0; i31++; if (i31>=31) i31=0;
 2602              		.loc 6 784 0
 2603 0fca 554A     		ldr	r2, .L786+16
 2604 0fcc 1378     		ldrb	r3, [r2]	@ zero_extendqisi2
 2605 0fce 0133     		adds	r3, r3, #1
 2606 0fd0 DBB2     		uxtb	r3, r3
 2607 0fd2 1E2B     		cmp	r3, #30
 2608 0fd4 88BF     		it	hi
 2609 0fd6 0023     		movhi	r3, #0
 2610 0fd8 1370     		strb	r3, [r2]
 785:/home/adamczer/paparazzi/var/aircrafts/Quad_LisaMX/ap/generated/periodic_telemetry.h ****     static uint8_t i204 = 0; i204++; if (i204>=204) i204=0;
 2611              		.loc 6 785 0
 2612 0fda 524A     		ldr	r2, .L786+20
 2613 0fdc 1378     		ldrb	r3, [r2]	@ zero_extendqisi2
 2614 0fde 0133     		adds	r3, r3, #1
 2615 0fe0 DBB2     		uxtb	r3, r3
 2616 0fe2 652B     		cmp	r3, #101
 2617 0fe4 88BF     		it	hi
 2618 0fe6 0023     		movhi	r3, #0
 2619 0fe8 1370     		strb	r3, [r2]
 786:/home/adamczer/paparazzi/var/aircrafts/Quad_LisaMX/ap/generated/periodic_telemetry.h ****     static uint16_t i409 = 0; i409++; if (i409>=409) i409=0;
 2620              		.loc 6 786 0
 2621 0fea 4F4A     		ldr	r2, .L786+24
 2622 0fec 1378     		ldrb	r3, [r2]	@ zero_extendqisi2
 2623 0fee 0133     		adds	r3, r3, #1
 2624 0ff0 DBB2     		uxtb	r3, r3
 2625 0ff2 CB2B     		cmp	r3, #203
 2626 0ff4 88BF     		it	hi
 2627 0ff6 0023     		movhi	r3, #0
 2628 0ff8 1370     		strb	r3, [r2]
 787:/home/adamczer/paparazzi/var/aircrafts/Quad_LisaMX/ap/generated/periodic_telemetry.h ****     static uint16_t i460 = 0; i460++; if (i460>=460) i460=0;
 2629              		.loc 6 787 0
 2630 0ffa 4C4A     		ldr	r2, .L786+28
 2631 0ffc 1388     		ldrh	r3, [r2]
 2632 0ffe 0133     		adds	r3, r3, #1
 2633 1000 9BB2     		uxth	r3, r3
 2634 1002 B3F5CC7F 		cmp	r3, #408
 2635 1006 88BF     		it	hi
 2636 1008 0023     		movhi	r3, #0
 2637 100a 1380     		strh	r3, [r2]	@ movhi
 788:/home/adamczer/paparazzi/var/aircrafts/Quad_LisaMX/ap/generated/periodic_telemetry.h ****     static uint16_t i614 = 0; i614++; if (i614>=614) i614=0;
 2638              		.loc 6 788 0
 2639 100c 484A     		ldr	r2, .L786+32
 2640 100e 1388     		ldrh	r3, [r2]
 2641 1010 0133     		adds	r3, r3, #1
 2642 1012 9BB2     		uxth	r3, r3
 2643 1014 B3F5E67F 		cmp	r3, #460
 2644 1018 28BF     		it	cs
 2645 101a 0023     		movcs	r3, #0
 2646 101c 1380     		strh	r3, [r2]	@ movhi
 789:/home/adamczer/paparazzi/var/aircrafts/Quad_LisaMX/ap/generated/periodic_telemetry.h ****     static uint16_t i819 = 0; i819++; if (i819>=819) i819=0;
 2647              		.loc 6 789 0
 2648 101e 454A     		ldr	r2, .L786+36
 2649 1020 1388     		ldrh	r3, [r2]
 2650 1022 0133     		adds	r3, r3, #1
 2651 1024 9BB2     		uxth	r3, r3
 2652 1026 40F26521 		movw	r1, #613
 2653 102a 8B42     		cmp	r3, r1
 2654 102c 88BF     		it	hi
 2655 102e 0023     		movhi	r3, #0
 2656 1030 1380     		strh	r3, [r2]	@ movhi
 2657              		.loc 6 790 0
 2658 1032 BBF80030 		ldrh	r3, [fp]
 2659 1036 0133     		adds	r3, r3, #1
 2660 1038 9BB2     		uxth	r3, r3
 2661 103a 40F23232 		movw	r2, #818
 2662 103e 9342     		cmp	r3, r2
 791:/home/adamczer/paparazzi/var/aircrafts/Quad_LisaMX/ap/generated/periodic_telemetry.h ****     static uint16_t i2611 = 0; i2611++; if (i2611>=2611) i2611=0;
 2663              		.loc 6 791 0
 2664 1040 3D4A     		ldr	r2, .L786+40
 790:/home/adamczer/paparazzi/var/aircrafts/Quad_LisaMX/ap/generated/periodic_telemetry.h ****     static uint16_t i2611 = 0; i2611++; if (i2611>=2611) i2611=0;
 2665              		.loc 6 790 0
 2666 1042 88BF     		it	hi
 2667 1044 0023     		movhi	r3, #0
 2668 1046 ABF80030 		strh	r3, [fp]	@ movhi
 2669              		.loc 6 791 0
 2670 104a 1388     		ldrh	r3, [r2]
 2671 104c 0133     		adds	r3, r3, #1
 2672 104e 9BB2     		uxth	r3, r3
 2673 1050 40F63221 		movw	r1, #2610
 2674 1054 8B42     		cmp	r3, r1
 2675 1056 88BF     		it	hi
 2676 1058 0023     		movhi	r3, #0
 2677 105a 1380     		strh	r3, [r2]	@ movhi
 792:/home/adamczer/paparazzi/var/aircrafts/Quad_LisaMX/ap/generated/periodic_telemetry.h ****     if (i2611 == 0) {
 2678              		.loc 6 792 0
 2679 105c 1388     		ldrh	r3, [r2]
 2680 105e 3BB9     		cbnz	r3, .L262
 793:/home/adamczer/paparazzi/var/aircrafts/Quad_LisaMX/ap/generated/periodic_telemetry.h ****       if (telemetry_Main.msgs[TELEMETRY_MAIN_MSG_INS_REF_ID].cb != NULL)
 2681              		.loc 6 793 0
 2682 1060 2B4B     		ldr	r3, .L786
 2683 1062 5B68     		ldr	r3, [r3, #4]
 2684 1064 D3F8443D 		ldr	r3, [r3, #3396]
 2685 1068 13B1     		cbz	r3, .L262
 794:/home/adamczer/paparazzi/var/aircrafts/Quad_LisaMX/ap/generated/periodic_telemetry.h ****         telemetry_Main.msgs[TELEMETRY_MAIN_MSG_INS_REF_ID].cb(trans, dev);
 2686              		.loc 6 794 0
 2687 106a 2A48     		ldr	r0, .L786+4
 2688              	.LVL239:
 2689 106c 2A49     		ldr	r1, .L786+8
 2690              	.LVL240:
 2691 106e 9847     		blx	r3
 2692              	.LVL241:
 2693              	.L262:
 795:/home/adamczer/paparazzi/var/aircrafts/Quad_LisaMX/ap/generated/periodic_telemetry.h **** #if USE_PERIODIC_TELEMETRY_REPORT
 796:/home/adamczer/paparazzi/var/aircrafts/Quad_LisaMX/ap/generated/periodic_telemetry.h ****       else periodic_telemetry_err_report(TELEMETRY_PROCESS_Main, telemetry_mode_Main, TELEMETRY_MAI
 797:/home/adamczer/paparazzi/var/aircrafts/Quad_LisaMX/ap/generated/periodic_telemetry.h **** #endif
 798:/home/adamczer/paparazzi/var/aircrafts/Quad_LisaMX/ap/generated/periodic_telemetry.h ****     }
 799:/home/adamczer/paparazzi/var/aircrafts/Quad_LisaMX/ap/generated/periodic_telemetry.h ****     if (i819 == 51) {
 2694              		.loc 6 799 0
 2695 1070 BBF80030 		ldrh	r3, [fp]
 2696 1074 332B     		cmp	r3, #51
 2697 1076 07D1     		bne	.L263
 800:/home/adamczer/paparazzi/var/aircrafts/Quad_LisaMX/ap/generated/periodic_telemetry.h ****       if (telemetry_Main.msgs[TELEMETRY_MAIN_MSG_ROTORCRAFT_NAV_STATUS_ID].cb != NULL)
 2698              		.loc 6 800 0
 2699 1078 254B     		ldr	r3, .L786
 2700 107a 5B68     		ldr	r3, [r3, #4]
 2701 107c D3F85C36 		ldr	r3, [r3, #1628]
 2702 1080 13B1     		cbz	r3, .L263
 801:/home/adamczer/paparazzi/var/aircrafts/Quad_LisaMX/ap/generated/periodic_telemetry.h ****         telemetry_Main.msgs[TELEMETRY_MAIN_MSG_ROTORCRAFT_NAV_STATUS_ID].cb(trans, dev);
 2703              		.loc 6 801 0
 2704 1082 2448     		ldr	r0, .L786+4
 2705              	.LVL242:
 2706 1084 2449     		ldr	r1, .L786+8
 2707              	.LVL243:
 2708 1086 9847     		blx	r3
 2709              	.LVL244:
 2710              	.L263:
 802:/home/adamczer/paparazzi/var/aircrafts/Quad_LisaMX/ap/generated/periodic_telemetry.h **** #if USE_PERIODIC_TELEMETRY_REPORT
 803:/home/adamczer/paparazzi/var/aircrafts/Quad_LisaMX/ap/generated/periodic_telemetry.h ****       else periodic_telemetry_err_report(TELEMETRY_PROCESS_Main, telemetry_mode_Main, TELEMETRY_MAI
 804:/home/adamczer/paparazzi/var/aircrafts/Quad_LisaMX/ap/generated/periodic_telemetry.h **** #endif
 805:/home/adamczer/paparazzi/var/aircrafts/Quad_LisaMX/ap/generated/periodic_telemetry.h ****     }
 806:/home/adamczer/paparazzi/var/aircrafts/Quad_LisaMX/ap/generated/periodic_telemetry.h ****     if (i614 == 102) {
 2711              		.loc 6 806 0
 2712 1088 2A4B     		ldr	r3, .L786+36
 2713 108a 1B88     		ldrh	r3, [r3]
 2714 108c 662B     		cmp	r3, #102
 2715 108e 07D1     		bne	.L264
 807:/home/adamczer/paparazzi/var/aircrafts/Quad_LisaMX/ap/generated/periodic_telemetry.h ****       if (telemetry_Main.msgs[TELEMETRY_MAIN_MSG_ROTORCRAFT_STATUS_ID].cb != NULL)
 2716              		.loc 6 807 0
 2717 1090 1F4B     		ldr	r3, .L786
 2718 1092 5B68     		ldr	r3, [r3, #4]
 2719 1094 D3F88430 		ldr	r3, [r3, #132]
 2720 1098 13B1     		cbz	r3, .L264
 808:/home/adamczer/paparazzi/var/aircrafts/Quad_LisaMX/ap/generated/periodic_telemetry.h ****         telemetry_Main.msgs[TELEMETRY_MAIN_MSG_ROTORCRAFT_STATUS_ID].cb(trans, dev);
 2721              		.loc 6 808 0
 2722 109a 1E48     		ldr	r0, .L786+4
 2723              	.LVL245:
 2724 109c 1E49     		ldr	r1, .L786+8
 2725              	.LVL246:
 2726 109e 9847     		blx	r3
 2727              	.LVL247:
 2728              	.L264:
 809:/home/adamczer/paparazzi/var/aircrafts/Quad_LisaMX/ap/generated/periodic_telemetry.h **** #if USE_PERIODIC_TELEMETRY_REPORT
 810:/home/adamczer/paparazzi/var/aircrafts/Quad_LisaMX/ap/generated/periodic_telemetry.h ****       else periodic_telemetry_err_report(TELEMETRY_PROCESS_Main, telemetry_mode_Main, TELEMETRY_MAI
 811:/home/adamczer/paparazzi/var/aircrafts/Quad_LisaMX/ap/generated/periodic_telemetry.h **** #endif
 812:/home/adamczer/paparazzi/var/aircrafts/Quad_LisaMX/ap/generated/periodic_telemetry.h ****     }
 813:/home/adamczer/paparazzi/var/aircrafts/Quad_LisaMX/ap/generated/periodic_telemetry.h ****     if (i460 == 153) {
 2729              		.loc 6 813 0
 2730 10a0 234B     		ldr	r3, .L786+32
 2731 10a2 1B88     		ldrh	r3, [r3]
 2732 10a4 992B     		cmp	r3, #153
 2733 10a6 07D1     		bne	.L265
 814:/home/adamczer/paparazzi/var/aircrafts/Quad_LisaMX/ap/generated/periodic_telemetry.h ****       if (telemetry_Main.msgs[TELEMETRY_MAIN_MSG_ALIVE_ID].cb != NULL)
 2734              		.loc 6 814 0
 2735 10a8 194B     		ldr	r3, .L786
 2736 10aa 5B68     		ldr	r3, [r3, #4]
 2737 10ac D3F8F03B 		ldr	r3, [r3, #3056]
 2738 10b0 13B1     		cbz	r3, .L265
 815:/home/adamczer/paparazzi/var/aircrafts/Quad_LisaMX/ap/generated/periodic_telemetry.h ****         telemetry_Main.msgs[TELEMETRY_MAIN_MSG_ALIVE_ID].cb(trans, dev);
 2739              		.loc 6 815 0
 2740 10b2 1848     		ldr	r0, .L786+4
 2741              	.LVL248:
 2742 10b4 1849     		ldr	r1, .L786+8
 2743              	.LVL249:
 2744 10b6 9847     		blx	r3
 2745              	.LVL250:
 2746              	.L265:
 816:/home/adamczer/paparazzi/var/aircrafts/Quad_LisaMX/ap/generated/periodic_telemetry.h **** #if USE_PERIODIC_TELEMETRY_REPORT
 817:/home/adamczer/paparazzi/var/aircrafts/Quad_LisaMX/ap/generated/periodic_telemetry.h ****       else periodic_telemetry_err_report(TELEMETRY_PROCESS_Main, telemetry_mode_Main, TELEMETRY_MAI
 818:/home/adamczer/paparazzi/var/aircrafts/Quad_LisaMX/ap/generated/periodic_telemetry.h **** #endif
 819:/home/adamczer/paparazzi/var/aircrafts/Quad_LisaMX/ap/generated/periodic_telemetry.h ****     }
 820:/home/adamczer/paparazzi/var/aircrafts/Quad_LisaMX/ap/generated/periodic_telemetry.h ****     if (i409 == 204) {
 2747              		.loc 6 820 0
 2748 10b8 1C4B     		ldr	r3, .L786+28
 2749 10ba 1B88     		ldrh	r3, [r3]
 2750 10bc CC2B     		cmp	r3, #204
 2751 10be 07D1     		bne	.L266
 821:/home/adamczer/paparazzi/var/aircrafts/Quad_LisaMX/ap/generated/periodic_telemetry.h ****       if (telemetry_Main.msgs[TELEMETRY_MAIN_MSG_ROTORCRAFT_FP_ID].cb != NULL)
 2752              		.loc 6 821 0
 2753 10c0 134B     		ldr	r3, .L786
 2754 10c2 5B68     		ldr	r3, [r3, #4]
 2755 10c4 D3F8A036 		ldr	r3, [r3, #1696]
 2756 10c8 13B1     		cbz	r3, .L266
 822:/home/adamczer/paparazzi/var/aircrafts/Quad_LisaMX/ap/generated/periodic_telemetry.h ****         telemetry_Main.msgs[TELEMETRY_MAIN_MSG_ROTORCRAFT_FP_ID].cb(trans, dev);
 2757              		.loc 6 822 0
 2758 10ca 1248     		ldr	r0, .L786+4
 2759              	.LVL251:
 2760 10cc 1249     		ldr	r1, .L786+8
 2761              	.LVL252:
 2762 10ce 9847     		blx	r3
 2763              	.LVL253:
 2764              	.L266:
 823:/home/adamczer/paparazzi/var/aircrafts/Quad_LisaMX/ap/generated/periodic_telemetry.h **** #if USE_PERIODIC_TELEMETRY_REPORT
 824:/home/adamczer/paparazzi/var/aircrafts/Quad_LisaMX/ap/generated/periodic_telemetry.h ****       else periodic_telemetry_err_report(TELEMETRY_PROCESS_Main, telemetry_mode_Main, TELEMETRY_MAI
 825:/home/adamczer/paparazzi/var/aircrafts/Quad_LisaMX/ap/generated/periodic_telemetry.h **** #endif
 826:/home/adamczer/paparazzi/var/aircrafts/Quad_LisaMX/ap/generated/periodic_telemetry.h ****     }
 827:/home/adamczer/paparazzi/var/aircrafts/Quad_LisaMX/ap/generated/periodic_telemetry.h ****     if (i204 == 51) {
 2765              		.loc 6 827 0
 2766 10d0 154B     		ldr	r3, .L786+24
 2767 10d2 1B78     		ldrb	r3, [r3]	@ zero_extendqisi2
 2768 10d4 332B     		cmp	r3, #51
 2769 10d6 07D1     		bne	.L267
 828:/home/adamczer/paparazzi/var/aircrafts/Quad_LisaMX/ap/generated/periodic_telemetry.h ****       if (telemetry_Main.msgs[TELEMETRY_MAIN_MSG_STAB_ATTITUDE_ID].cb != NULL)
 2770              		.loc 6 828 0
 2771 10d8 0D4B     		ldr	r3, .L786
 2772 10da 5B68     		ldr	r3, [r3, #4]
 2773 10dc D3F88034 		ldr	r3, [r3, #1152]
 2774 10e0 13B1     		cbz	r3, .L267
 829:/home/adamczer/paparazzi/var/aircrafts/Quad_LisaMX/ap/generated/periodic_telemetry.h ****         telemetry_Main.msgs[TELEMETRY_MAIN_MSG_STAB_ATTITUDE_ID].cb(trans, dev);
 2775              		.loc 6 829 0
 2776 10e2 0C48     		ldr	r0, .L786+4
 2777              	.LVL254:
 2778 10e4 0C49     		ldr	r1, .L786+8
 2779              	.LVL255:
 2780 10e6 9847     		blx	r3
 2781              	.LVL256:
 2782              	.L267:
 830:/home/adamczer/paparazzi/var/aircrafts/Quad_LisaMX/ap/generated/periodic_telemetry.h **** #if USE_PERIODIC_TELEMETRY_REPORT
 831:/home/adamczer/paparazzi/var/aircrafts/Quad_LisaMX/ap/generated/periodic_telemetry.h ****       else periodic_telemetry_err_report(TELEMETRY_PROCESS_Main, telemetry_mode_Main, TELEMETRY_MAI
 832:/home/adamczer/paparazzi/var/aircrafts/Quad_LisaMX/ap/generated/periodic_telemetry.h **** #endif
 833:/home/adamczer/paparazzi/var/aircrafts/Quad_LisaMX/ap/generated/periodic_telemetry.h ****     }
 834:/home/adamczer/paparazzi/var/aircrafts/Quad_LisaMX/ap/generated/periodic_telemetry.h ****     if (i102 == 0) {
 2783              		.loc 6 834 0
 2784 10e8 0E4B     		ldr	r3, .L786+20
 2785 10ea 1B78     		ldrb	r3, [r3]	@ zero_extendqisi2
 2786 10ec 3BB9     		cbnz	r3, .L268
 835:/home/adamczer/paparazzi/var/aircrafts/Quad_LisaMX/ap/generated/periodic_telemetry.h ****       if (telemetry_Main.msgs[TELEMETRY_MAIN_MSG_HFF_DBG_ID].cb != NULL)
 2787              		.loc 6 835 0
 2788 10ee 084B     		ldr	r3, .L786
 2789 10f0 5B68     		ldr	r3, [r3, #4]
 2790 10f2 D3F8D039 		ldr	r3, [r3, #2512]
 2791 10f6 13B1     		cbz	r3, .L268
 836:/home/adamczer/paparazzi/var/aircrafts/Quad_LisaMX/ap/generated/periodic_telemetry.h ****         telemetry_Main.msgs[TELEMETRY_MAIN_MSG_HFF_DBG_ID].cb(trans, dev);
 2792              		.loc 6 836 0
 2793 10f8 0648     		ldr	r0, .L786+4
 2794              	.LVL257:
 2795 10fa 0749     		ldr	r1, .L786+8
 2796              	.LVL258:
 2797 10fc 9847     		blx	r3
 2798              	.LVL259:
 2799              	.L268:
 837:/home/adamczer/paparazzi/var/aircrafts/Quad_LisaMX/ap/generated/periodic_telemetry.h **** #if USE_PERIODIC_TELEMETRY_REPORT
 838:/home/adamczer/paparazzi/var/aircrafts/Quad_LisaMX/ap/generated/periodic_telemetry.h ****       else periodic_telemetry_err_report(TELEMETRY_PROCESS_Main, telemetry_mode_Main, TELEMETRY_MAI
 839:/home/adamczer/paparazzi/var/aircrafts/Quad_LisaMX/ap/generated/periodic_telemetry.h **** #endif
 840:/home/adamczer/paparazzi/var/aircrafts/Quad_LisaMX/ap/generated/periodic_telemetry.h ****     }
 841:/home/adamczer/paparazzi/var/aircrafts/Quad_LisaMX/ap/generated/periodic_telemetry.h ****     if (i31 == 20) {
 2800              		.loc 6 841 0
 2801 10fe 084B     		ldr	r3, .L786+16
 2802 1100 1B78     		ldrb	r3, [r3]	@ zero_extendqisi2
 2803 1102 142B     		cmp	r3, #20
 2804 1104 1ED1     		bne	.L269
 842:/home/adamczer/paparazzi/var/aircrafts/Quad_LisaMX/ap/generated/periodic_telemetry.h ****       if (telemetry_Main.msgs[TELEMETRY_MAIN_MSG_GUIDANCE_H_REF_ID].cb != NULL)
 2805              		.loc 6 842 0
 2806 1106 024B     		ldr	r3, .L786
 2807 1108 5B68     		ldr	r3, [r3, #4]
 2808 110a D3F87C38 		ldr	r3, [r3, #2172]
 2809 110e 1FE0     		b	.L766
 2810              	.L787:
 2811              		.align	2
 2812              	.L786:
 2813 1110 00000000 		.word	telemetry_Main
 2814 1114 08010000 		.word	pprz_tp+264
 2815 1118 28010000 		.word	uart2+296
 2816 111c 00000000 		.word	.LANCHOR69
 2817 1120 00000000 		.word	.LANCHOR70
 2818 1124 00000000 		.word	.LANCHOR71
 2819 1128 00000000 		.word	.LANCHOR72
 2820 112c 00000000 		.word	.LANCHOR73
 2821 1130 00000000 		.word	.LANCHOR74
 2822 1134 00000000 		.word	.LANCHOR75
 2823 1138 00000000 		.word	.LANCHOR77
 2824 113c 00000000 		.word	.LANCHOR68
 2825 1140 00000000 		.word	.LANCHOR76
 2826              	.L269:
 843:/home/adamczer/paparazzi/var/aircrafts/Quad_LisaMX/ap/generated/periodic_telemetry.h ****         telemetry_Main.msgs[TELEMETRY_MAIN_MSG_GUIDANCE_H_REF_ID].cb(trans, dev);
 844:/home/adamczer/paparazzi/var/aircrafts/Quad_LisaMX/ap/generated/periodic_telemetry.h **** #if USE_PERIODIC_TELEMETRY_REPORT
 845:/home/adamczer/paparazzi/var/aircrafts/Quad_LisaMX/ap/generated/periodic_telemetry.h ****       else periodic_telemetry_err_report(TELEMETRY_PROCESS_Main, telemetry_mode_Main, TELEMETRY_MAI
 846:/home/adamczer/paparazzi/var/aircrafts/Quad_LisaMX/ap/generated/periodic_telemetry.h **** #endif
 847:/home/adamczer/paparazzi/var/aircrafts/Quad_LisaMX/ap/generated/periodic_telemetry.h ****     }
 848:/home/adamczer/paparazzi/var/aircrafts/Quad_LisaMX/ap/generated/periodic_telemetry.h ****     else if (i31 == 9) {
 2827              		.loc 6 848 0
 2828 1144 092B     		cmp	r3, #9
 2829 1146 07D1     		bne	.L270
 849:/home/adamczer/paparazzi/var/aircrafts/Quad_LisaMX/ap/generated/periodic_telemetry.h ****       if (telemetry_Main.msgs[TELEMETRY_MAIN_MSG_HOVER_LOOP_ID].cb != NULL)
 2830              		.loc 6 849 0
 2831 1148 964B     		ldr	r3, .L788
 2832 114a 5B68     		ldr	r3, [r3, #4]
 2833 114c D3F8E03A 		ldr	r3, [r3, #2784]
 2834              	.L766:
 2835 1150 13B1     		cbz	r3, .L270
 850:/home/adamczer/paparazzi/var/aircrafts/Quad_LisaMX/ap/generated/periodic_telemetry.h ****         telemetry_Main.msgs[TELEMETRY_MAIN_MSG_HOVER_LOOP_ID].cb(trans, dev);
 2836              		.loc 6 850 0
 2837 1152 9548     		ldr	r0, .L788+4
 2838              	.LVL260:
 2839 1154 9549     		ldr	r1, .L788+8
 2840              	.LVL261:
 2841 1156 9847     		blx	r3
 2842              	.LVL262:
 2843              	.L270:
 851:/home/adamczer/paparazzi/var/aircrafts/Quad_LisaMX/ap/generated/periodic_telemetry.h **** #if USE_PERIODIC_TELEMETRY_REPORT
 852:/home/adamczer/paparazzi/var/aircrafts/Quad_LisaMX/ap/generated/periodic_telemetry.h ****       else periodic_telemetry_err_report(TELEMETRY_PROCESS_Main, telemetry_mode_Main, TELEMETRY_MAI
 853:/home/adamczer/paparazzi/var/aircrafts/Quad_LisaMX/ap/generated/periodic_telemetry.h **** #endif
 854:/home/adamczer/paparazzi/var/aircrafts/Quad_LisaMX/ap/generated/periodic_telemetry.h ****     }
 855:/home/adamczer/paparazzi/var/aircrafts/Quad_LisaMX/ap/generated/periodic_telemetry.h ****     if (i25 == 10) {
 2844              		.loc 6 855 0
 2845 1158 954B     		ldr	r3, .L788+12
 2846 115a 1B78     		ldrb	r3, [r3]	@ zero_extendqisi2
 2847 115c 0A2B     		cmp	r3, #10
 2848 115e 07D1     		bne	.L271
 856:/home/adamczer/paparazzi/var/aircrafts/Quad_LisaMX/ap/generated/periodic_telemetry.h ****       if (telemetry_Main.msgs[TELEMETRY_MAIN_MSG_HFF_ID].cb != NULL)
 2849              		.loc 6 856 0
 2850 1160 904B     		ldr	r3, .L788
 2851 1162 5B68     		ldr	r3, [r3, #4]
 2852 1164 D3F85031 		ldr	r3, [r3, #336]
 2853 1168 13B1     		cbz	r3, .L271
 857:/home/adamczer/paparazzi/var/aircrafts/Quad_LisaMX/ap/generated/periodic_telemetry.h ****         telemetry_Main.msgs[TELEMETRY_MAIN_MSG_HFF_ID].cb(trans, dev);
 2854              		.loc 6 857 0
 2855 116a 8F48     		ldr	r0, .L788+4
 2856              	.LVL263:
 2857 116c 8F49     		ldr	r1, .L788+8
 2858              	.LVL264:
 2859 116e 9847     		blx	r3
 2860              	.LVL265:
 2861              	.L271:
 858:/home/adamczer/paparazzi/var/aircrafts/Quad_LisaMX/ap/generated/periodic_telemetry.h **** #if USE_PERIODIC_TELEMETRY_REPORT
 859:/home/adamczer/paparazzi/var/aircrafts/Quad_LisaMX/ap/generated/periodic_telemetry.h ****       else periodic_telemetry_err_report(TELEMETRY_PROCESS_Main, telemetry_mode_Main, TELEMETRY_MAI
 860:/home/adamczer/paparazzi/var/aircrafts/Quad_LisaMX/ap/generated/periodic_telemetry.h **** #endif
 861:/home/adamczer/paparazzi/var/aircrafts/Quad_LisaMX/ap/generated/periodic_telemetry.h ****     }
 862:/home/adamczer/paparazzi/var/aircrafts/Quad_LisaMX/ap/generated/periodic_telemetry.h ****     if (i15 == 1) {
 2862              		.loc 6 862 0
 2863 1170 9AF80030 		ldrb	r3, [r10]	@ zero_extendqisi2
 2864 1174 012B     		cmp	r3, #1
 2865 1176 07D1     		bne	.L241
 863:/home/adamczer/paparazzi/var/aircrafts/Quad_LisaMX/ap/generated/periodic_telemetry.h ****       if (telemetry_Main.msgs[TELEMETRY_MAIN_MSG_HFF_GPS_ID].cb != NULL)
 2866              		.loc 6 863 0
 2867 1178 8A4B     		ldr	r3, .L788
 2868 117a 5B68     		ldr	r3, [r3, #4]
 2869 117c D3F8E436 		ldr	r3, [r3, #1764]
 2870 1180 13B1     		cbz	r3, .L241
 864:/home/adamczer/paparazzi/var/aircrafts/Quad_LisaMX/ap/generated/periodic_telemetry.h ****         telemetry_Main.msgs[TELEMETRY_MAIN_MSG_HFF_GPS_ID].cb(trans, dev);
 2871              		.loc 6 864 0
 2872 1182 8948     		ldr	r0, .L788+4
 2873              	.LVL266:
 2874 1184 8949     		ldr	r1, .L788+8
 2875              	.LVL267:
 2876 1186 9847     		blx	r3
 2877              	.LVL268:
 2878              	.L241:
 2879              	.LBE159:
 865:/home/adamczer/paparazzi/var/aircrafts/Quad_LisaMX/ap/generated/periodic_telemetry.h **** #if USE_PERIODIC_TELEMETRY_REPORT
 866:/home/adamczer/paparazzi/var/aircrafts/Quad_LisaMX/ap/generated/periodic_telemetry.h ****       else periodic_telemetry_err_report(TELEMETRY_PROCESS_Main, telemetry_mode_Main, TELEMETRY_MAI
 867:/home/adamczer/paparazzi/var/aircrafts/Quad_LisaMX/ap/generated/periodic_telemetry.h **** #endif
 868:/home/adamczer/paparazzi/var/aircrafts/Quad_LisaMX/ap/generated/periodic_telemetry.h ****     }
 869:/home/adamczer/paparazzi/var/aircrafts/Quad_LisaMX/ap/generated/periodic_telemetry.h ****   }
 870:/home/adamczer/paparazzi/var/aircrafts/Quad_LisaMX/ap/generated/periodic_telemetry.h ****   if (telemetry_mode_Main == TELEMETRY_MODE_Main_aligner) {
 2880              		.loc 6 870 0
 2881 1188 2378     		ldrb	r3, [r4]	@ zero_extendqisi2
 2882 118a 0A2B     		cmp	r3, #10
 2883 118c 29D1     		bne	.L274
 2884              	.LBB160:
 871:/home/adamczer/paparazzi/var/aircrafts/Quad_LisaMX/ap/generated/periodic_telemetry.h ****     static uint8_t i10 = 0; i10++; if (i10>=10) i10=0;
 2885              		.loc 6 871 0
 2886 118e DFF840A2 		ldr	r10, .L788+44
 872:/home/adamczer/paparazzi/var/aircrafts/Quad_LisaMX/ap/generated/periodic_telemetry.h ****     static uint16_t i460 = 0; i460++; if (i460>=460) i460=0;
 2887              		.loc 6 872 0
 2888 1192 884A     		ldr	r2, .L788+16
 871:/home/adamczer/paparazzi/var/aircrafts/Quad_LisaMX/ap/generated/periodic_telemetry.h ****     static uint8_t i10 = 0; i10++; if (i10>=10) i10=0;
 2889              		.loc 6 871 0
 2890 1194 9AF80030 		ldrb	r3, [r10]	@ zero_extendqisi2
 2891 1198 0133     		adds	r3, r3, #1
 2892 119a DBB2     		uxtb	r3, r3
 2893 119c 092B     		cmp	r3, #9
 2894 119e 88BF     		it	hi
 2895 11a0 0023     		movhi	r3, #0
 2896 11a2 8AF80030 		strb	r3, [r10]
 2897              		.loc 6 872 0
 2898 11a6 1388     		ldrh	r3, [r2]
 2899 11a8 0133     		adds	r3, r3, #1
 2900 11aa 9BB2     		uxth	r3, r3
 2901 11ac B3F5E67F 		cmp	r3, #460
 2902 11b0 28BF     		it	cs
 2903 11b2 0023     		movcs	r3, #0
 2904 11b4 1380     		strh	r3, [r2]	@ movhi
 873:/home/adamczer/paparazzi/var/aircrafts/Quad_LisaMX/ap/generated/periodic_telemetry.h ****     if (i460 == 0) {
 2905              		.loc 6 873 0
 2906 11b6 1388     		ldrh	r3, [r2]
 2907 11b8 3BB9     		cbnz	r3, .L279
 874:/home/adamczer/paparazzi/var/aircrafts/Quad_LisaMX/ap/generated/periodic_telemetry.h ****       if (telemetry_Main.msgs[TELEMETRY_MAIN_MSG_ALIVE_ID].cb != NULL)
 2908              		.loc 6 874 0
 2909 11ba 7A4B     		ldr	r3, .L788
 2910 11bc 5B68     		ldr	r3, [r3, #4]
 2911 11be D3F8F03B 		ldr	r3, [r3, #3056]
 2912 11c2 13B1     		cbz	r3, .L279
 875:/home/adamczer/paparazzi/var/aircrafts/Quad_LisaMX/ap/generated/periodic_telemetry.h ****         telemetry_Main.msgs[TELEMETRY_MAIN_MSG_ALIVE_ID].cb(trans, dev);
 2913              		.loc 6 875 0
 2914 11c4 7848     		ldr	r0, .L788+4
 2915              	.LVL269:
 2916 11c6 7949     		ldr	r1, .L788+8
 2917              	.LVL270:
 2918 11c8 9847     		blx	r3
 2919              	.LVL271:
 2920              	.L279:
 876:/home/adamczer/paparazzi/var/aircrafts/Quad_LisaMX/ap/generated/periodic_telemetry.h **** #if USE_PERIODIC_TELEMETRY_REPORT
 877:/home/adamczer/paparazzi/var/aircrafts/Quad_LisaMX/ap/generated/periodic_telemetry.h ****       else periodic_telemetry_err_report(TELEMETRY_PROCESS_Main, telemetry_mode_Main, TELEMETRY_MAI
 878:/home/adamczer/paparazzi/var/aircrafts/Quad_LisaMX/ap/generated/periodic_telemetry.h **** #endif
 879:/home/adamczer/paparazzi/var/aircrafts/Quad_LisaMX/ap/generated/periodic_telemetry.h ****     }
 880:/home/adamczer/paparazzi/var/aircrafts/Quad_LisaMX/ap/generated/periodic_telemetry.h ****     if (i10 == 1) {
 2921              		.loc 6 880 0
 2922 11ca 9AF80030 		ldrb	r3, [r10]	@ zero_extendqisi2
 2923 11ce 012B     		cmp	r3, #1
 2924 11d0 07D1     		bne	.L274
 881:/home/adamczer/paparazzi/var/aircrafts/Quad_LisaMX/ap/generated/periodic_telemetry.h ****       if (telemetry_Main.msgs[TELEMETRY_MAIN_MSG_FILTER_ALIGNER_ID].cb != NULL)
 2925              		.loc 6 881 0
 2926 11d2 744B     		ldr	r3, .L788
 2927 11d4 5B68     		ldr	r3, [r3, #4]
 2928 11d6 D3F8C830 		ldr	r3, [r3, #200]
 2929 11da 13B1     		cbz	r3, .L274
 882:/home/adamczer/paparazzi/var/aircrafts/Quad_LisaMX/ap/generated/periodic_telemetry.h ****         telemetry_Main.msgs[TELEMETRY_MAIN_MSG_FILTER_ALIGNER_ID].cb(trans, dev);
 2930              		.loc 6 882 0
 2931 11dc 7248     		ldr	r0, .L788+4
 2932              	.LVL272:
 2933 11de 7349     		ldr	r1, .L788+8
 2934              	.LVL273:
 2935 11e0 9847     		blx	r3
 2936              	.LVL274:
 2937              	.L274:
 2938              	.LBE160:
 883:/home/adamczer/paparazzi/var/aircrafts/Quad_LisaMX/ap/generated/periodic_telemetry.h **** #if USE_PERIODIC_TELEMETRY_REPORT
 884:/home/adamczer/paparazzi/var/aircrafts/Quad_LisaMX/ap/generated/periodic_telemetry.h ****       else periodic_telemetry_err_report(TELEMETRY_PROCESS_Main, telemetry_mode_Main, TELEMETRY_MAI
 885:/home/adamczer/paparazzi/var/aircrafts/Quad_LisaMX/ap/generated/periodic_telemetry.h **** #endif
 886:/home/adamczer/paparazzi/var/aircrafts/Quad_LisaMX/ap/generated/periodic_telemetry.h ****     }
 887:/home/adamczer/paparazzi/var/aircrafts/Quad_LisaMX/ap/generated/periodic_telemetry.h ****   }
 888:/home/adamczer/paparazzi/var/aircrafts/Quad_LisaMX/ap/generated/periodic_telemetry.h ****   if (telemetry_mode_Main == TELEMETRY_MODE_Main_tune_hover) {
 2939              		.loc 6 888 0
 2940 11e2 2378     		ldrb	r3, [r4]	@ zero_extendqisi2
 2941 11e4 0B2B     		cmp	r3, #11
 2942 11e6 40F08280 		bne	.L44
 2943              	.LBB161:
 889:/home/adamczer/paparazzi/var/aircrafts/Quad_LisaMX/ap/generated/periodic_telemetry.h ****     static uint8_t i25 = 0; i25++; if (i25>=25) i25=0;
 2944              		.loc 6 889 0
 2945 11ea 734C     		ldr	r4, .L788+20
 890:/home/adamczer/paparazzi/var/aircrafts/Quad_LisaMX/ap/generated/periodic_telemetry.h ****     static uint8_t i51 = 0; i51++; if (i51>=51) i51=0;
 2946              		.loc 6 890 0
 2947 11ec DFF8E4A1 		ldr	r10, .L788+48
 889:/home/adamczer/paparazzi/var/aircrafts/Quad_LisaMX/ap/generated/periodic_telemetry.h ****     static uint8_t i25 = 0; i25++; if (i25>=25) i25=0;
 2948              		.loc 6 889 0
 2949 11f0 2378     		ldrb	r3, [r4]	@ zero_extendqisi2
 891:/home/adamczer/paparazzi/var/aircrafts/Quad_LisaMX/ap/generated/periodic_telemetry.h ****     static uint16_t i563 = 0; i563++; if (i563>=563) i563=0;
 2950              		.loc 6 891 0
 2951 11f2 724A     		ldr	r2, .L788+24
 892:/home/adamczer/paparazzi/var/aircrafts/Quad_LisaMX/ap/generated/periodic_telemetry.h ****     static uint16_t i614 = 0; i614++; if (i614>=614) i614=0;
 893:/home/adamczer/paparazzi/var/aircrafts/Quad_LisaMX/ap/generated/periodic_telemetry.h ****     static uint16_t i1075 = 0; i1075++; if (i1075>=1075) i1075=0;
 2952              		.loc 6 893 0
 2953 11f4 DFF8E0B1 		ldr	fp, .L788+52
 889:/home/adamczer/paparazzi/var/aircrafts/Quad_LisaMX/ap/generated/periodic_telemetry.h ****     static uint8_t i51 = 0; i51++; if (i51>=51) i51=0;
 2954              		.loc 6 889 0
 2955 11f8 0133     		adds	r3, r3, #1
 2956 11fa DBB2     		uxtb	r3, r3
 2957 11fc 182B     		cmp	r3, #24
 2958 11fe 88BF     		it	hi
 2959 1200 0023     		movhi	r3, #0
 2960 1202 2370     		strb	r3, [r4]
 890:/home/adamczer/paparazzi/var/aircrafts/Quad_LisaMX/ap/generated/periodic_telemetry.h ****     static uint16_t i563 = 0; i563++; if (i563>=563) i563=0;
 2961              		.loc 6 890 0
 2962 1204 9AF80030 		ldrb	r3, [r10]	@ zero_extendqisi2
 2963 1208 0133     		adds	r3, r3, #1
 2964 120a DBB2     		uxtb	r3, r3
 2965 120c 322B     		cmp	r3, #50
 2966 120e 88BF     		it	hi
 2967 1210 0023     		movhi	r3, #0
 2968 1212 8AF80030 		strb	r3, [r10]
 891:/home/adamczer/paparazzi/var/aircrafts/Quad_LisaMX/ap/generated/periodic_telemetry.h ****     static uint16_t i614 = 0; i614++; if (i614>=614) i614=0;
 2969              		.loc 6 891 0
 2970 1216 1388     		ldrh	r3, [r2]
 2971 1218 0133     		adds	r3, r3, #1
 2972 121a 9BB2     		uxth	r3, r3
 2973 121c 40F23221 		movw	r1, #562
 2974 1220 8B42     		cmp	r3, r1
 2975 1222 88BF     		it	hi
 2976 1224 0023     		movhi	r3, #0
 2977 1226 1380     		strh	r3, [r2]	@ movhi
 892:/home/adamczer/paparazzi/var/aircrafts/Quad_LisaMX/ap/generated/periodic_telemetry.h ****     static uint16_t i1075 = 0; i1075++; if (i1075>=1075) i1075=0;
 2978              		.loc 6 892 0
 2979 1228 654A     		ldr	r2, .L788+28
 2980 122a 1388     		ldrh	r3, [r2]
 2981 122c 0133     		adds	r3, r3, #1
 2982 122e 9BB2     		uxth	r3, r3
 2983 1230 40F26521 		movw	r1, #613
 2984 1234 8B42     		cmp	r3, r1
 2985 1236 88BF     		it	hi
 2986 1238 0023     		movhi	r3, #0
 2987 123a 1380     		strh	r3, [r2]	@ movhi
 2988              		.loc 6 893 0
 2989 123c BBF80030 		ldrh	r3, [fp]
 2990 1240 0133     		adds	r3, r3, #1
 2991 1242 9BB2     		uxth	r3, r3
 2992 1244 40F23242 		movw	r2, #1074
 2993 1248 9342     		cmp	r3, r2
 894:/home/adamczer/paparazzi/var/aircrafts/Quad_LisaMX/ap/generated/periodic_telemetry.h ****     static uint16_t i2611 = 0; i2611++; if (i2611>=2611) i2611=0;
 2994              		.loc 6 894 0
 2995 124a 5E4A     		ldr	r2, .L788+32
 893:/home/adamczer/paparazzi/var/aircrafts/Quad_LisaMX/ap/generated/periodic_telemetry.h ****     static uint16_t i2611 = 0; i2611++; if (i2611>=2611) i2611=0;
 2996              		.loc 6 893 0
 2997 124c 88BF     		it	hi
 2998 124e 0023     		movhi	r3, #0
 2999 1250 ABF80030 		strh	r3, [fp]	@ movhi
 3000              		.loc 6 894 0
 3001 1254 1388     		ldrh	r3, [r2]
 3002 1256 0133     		adds	r3, r3, #1
 3003 1258 9BB2     		uxth	r3, r3
 3004 125a 40F63221 		movw	r1, #2610
 3005 125e 8B42     		cmp	r3, r1
 3006 1260 88BF     		it	hi
 3007 1262 0023     		movhi	r3, #0
 3008 1264 1380     		strh	r3, [r2]	@ movhi
 895:/home/adamczer/paparazzi/var/aircrafts/Quad_LisaMX/ap/generated/periodic_telemetry.h ****     if (i2611 == 0) {
 3009              		.loc 6 895 0
 3010 1266 1388     		ldrh	r3, [r2]
 3011 1268 3BB9     		cbnz	r3, .L294
 896:/home/adamczer/paparazzi/var/aircrafts/Quad_LisaMX/ap/generated/periodic_telemetry.h ****       if (telemetry_Main.msgs[TELEMETRY_MAIN_MSG_INS_REF_ID].cb != NULL)
 3012              		.loc 6 896 0
 3013 126a 4E4B     		ldr	r3, .L788
 3014 126c 5B68     		ldr	r3, [r3, #4]
 3015 126e D3F8443D 		ldr	r3, [r3, #3396]
 3016 1272 13B1     		cbz	r3, .L294
 897:/home/adamczer/paparazzi/var/aircrafts/Quad_LisaMX/ap/generated/periodic_telemetry.h ****         telemetry_Main.msgs[TELEMETRY_MAIN_MSG_INS_REF_ID].cb(trans, dev);
 3017              		.loc 6 897 0
 3018 1274 4C48     		ldr	r0, .L788+4
 3019              	.LVL275:
 3020 1276 4D49     		ldr	r1, .L788+8
 3021              	.LVL276:
 3022 1278 9847     		blx	r3
 3023              	.LVL277:
 3024              	.L294:
 898:/home/adamczer/paparazzi/var/aircrafts/Quad_LisaMX/ap/generated/periodic_telemetry.h **** #if USE_PERIODIC_TELEMETRY_REPORT
 899:/home/adamczer/paparazzi/var/aircrafts/Quad_LisaMX/ap/generated/periodic_telemetry.h ****       else periodic_telemetry_err_report(TELEMETRY_PROCESS_Main, telemetry_mode_Main, TELEMETRY_MAI
 900:/home/adamczer/paparazzi/var/aircrafts/Quad_LisaMX/ap/generated/periodic_telemetry.h **** #endif
 901:/home/adamczer/paparazzi/var/aircrafts/Quad_LisaMX/ap/generated/periodic_telemetry.h ****     }
 902:/home/adamczer/paparazzi/var/aircrafts/Quad_LisaMX/ap/generated/periodic_telemetry.h ****     if (i1075 == 51) {
 3025              		.loc 6 902 0
 3026 127a BBF80030 		ldrh	r3, [fp]
 3027 127e 332B     		cmp	r3, #51
 3028 1280 07D1     		bne	.L295
 903:/home/adamczer/paparazzi/var/aircrafts/Quad_LisaMX/ap/generated/periodic_telemetry.h ****       if (telemetry_Main.msgs[TELEMETRY_MAIN_MSG_ALIVE_ID].cb != NULL)
 3029              		.loc 6 903 0
 3030 1282 484B     		ldr	r3, .L788
 3031 1284 5B68     		ldr	r3, [r3, #4]
 3032 1286 D3F8F03B 		ldr	r3, [r3, #3056]
 3033 128a 13B1     		cbz	r3, .L295
 904:/home/adamczer/paparazzi/var/aircrafts/Quad_LisaMX/ap/generated/periodic_telemetry.h ****         telemetry_Main.msgs[TELEMETRY_MAIN_MSG_ALIVE_ID].cb(trans, dev);
 3034              		.loc 6 904 0
 3035 128c 4648     		ldr	r0, .L788+4
 3036              	.LVL278:
 3037 128e 4749     		ldr	r1, .L788+8
 3038              	.LVL279:
 3039 1290 9847     		blx	r3
 3040              	.LVL280:
 3041              	.L295:
 905:/home/adamczer/paparazzi/var/aircrafts/Quad_LisaMX/ap/generated/periodic_telemetry.h **** #if USE_PERIODIC_TELEMETRY_REPORT
 906:/home/adamczer/paparazzi/var/aircrafts/Quad_LisaMX/ap/generated/periodic_telemetry.h ****       else periodic_telemetry_err_report(TELEMETRY_PROCESS_Main, telemetry_mode_Main, TELEMETRY_MAI
 907:/home/adamczer/paparazzi/var/aircrafts/Quad_LisaMX/ap/generated/periodic_telemetry.h **** #endif
 908:/home/adamczer/paparazzi/var/aircrafts/Quad_LisaMX/ap/generated/periodic_telemetry.h ****     }
 909:/home/adamczer/paparazzi/var/aircrafts/Quad_LisaMX/ap/generated/periodic_telemetry.h ****     if (i614 == 102) {
 3042              		.loc 6 909 0
 3043 1292 4B4B     		ldr	r3, .L788+28
 3044 1294 1B88     		ldrh	r3, [r3]
 3045 1296 662B     		cmp	r3, #102
 3046 1298 07D1     		bne	.L296
 910:/home/adamczer/paparazzi/var/aircrafts/Quad_LisaMX/ap/generated/periodic_telemetry.h ****       if (telemetry_Main.msgs[TELEMETRY_MAIN_MSG_ROTORCRAFT_STATUS_ID].cb != NULL)
 3047              		.loc 6 910 0
 3048 129a 424B     		ldr	r3, .L788
 3049 129c 5B68     		ldr	r3, [r3, #4]
 3050 129e D3F88430 		ldr	r3, [r3, #132]
 3051 12a2 13B1     		cbz	r3, .L296
 911:/home/adamczer/paparazzi/var/aircrafts/Quad_LisaMX/ap/generated/periodic_telemetry.h ****         telemetry_Main.msgs[TELEMETRY_MAIN_MSG_ROTORCRAFT_STATUS_ID].cb(trans, dev);
 3052              		.loc 6 911 0
 3053 12a4 4048     		ldr	r0, .L788+4
 3054              	.LVL281:
 3055 12a6 4149     		ldr	r1, .L788+8
 3056              	.LVL282:
 3057 12a8 9847     		blx	r3
 3058              	.LVL283:
 3059              	.L296:
 912:/home/adamczer/paparazzi/var/aircrafts/Quad_LisaMX/ap/generated/periodic_telemetry.h **** #if USE_PERIODIC_TELEMETRY_REPORT
 913:/home/adamczer/paparazzi/var/aircrafts/Quad_LisaMX/ap/generated/periodic_telemetry.h ****       else periodic_telemetry_err_report(TELEMETRY_PROCESS_Main, telemetry_mode_Main, TELEMETRY_MAI
 914:/home/adamczer/paparazzi/var/aircrafts/Quad_LisaMX/ap/generated/periodic_telemetry.h **** #endif
 915:/home/adamczer/paparazzi/var/aircrafts/Quad_LisaMX/ap/generated/periodic_telemetry.h ****     }
 916:/home/adamczer/paparazzi/var/aircrafts/Quad_LisaMX/ap/generated/periodic_telemetry.h ****     if (i563 == 153) {
 3060              		.loc 6 916 0
 3061 12aa 444B     		ldr	r3, .L788+24
 3062 12ac 1B88     		ldrh	r3, [r3]
 3063 12ae 992B     		cmp	r3, #153
 3064 12b0 07D1     		bne	.L297
 917:/home/adamczer/paparazzi/var/aircrafts/Quad_LisaMX/ap/generated/periodic_telemetry.h ****       if (telemetry_Main.msgs[TELEMETRY_MAIN_MSG_DL_VALUE_ID].cb != NULL)
 3065              		.loc 6 917 0
 3066 12b2 3C4B     		ldr	r3, .L788
 3067 12b4 5B68     		ldr	r3, [r3, #4]
 3068 12b6 D3F8783C 		ldr	r3, [r3, #3192]
 3069 12ba 13B1     		cbz	r3, .L297
 918:/home/adamczer/paparazzi/var/aircrafts/Quad_LisaMX/ap/generated/periodic_telemetry.h ****         telemetry_Main.msgs[TELEMETRY_MAIN_MSG_DL_VALUE_ID].cb(trans, dev);
 3070              		.loc 6 918 0
 3071 12bc 3A48     		ldr	r0, .L788+4
 3072              	.LVL284:
 3073 12be 3B49     		ldr	r1, .L788+8
 3074              	.LVL285:
 3075 12c0 9847     		blx	r3
 3076              	.LVL286:
 3077              	.L297:
 919:/home/adamczer/paparazzi/var/aircrafts/Quad_LisaMX/ap/generated/periodic_telemetry.h **** #if USE_PERIODIC_TELEMETRY_REPORT
 920:/home/adamczer/paparazzi/var/aircrafts/Quad_LisaMX/ap/generated/periodic_telemetry.h ****       else periodic_telemetry_err_report(TELEMETRY_PROCESS_Main, telemetry_mode_Main, TELEMETRY_MAI
 921:/home/adamczer/paparazzi/var/aircrafts/Quad_LisaMX/ap/generated/periodic_telemetry.h **** #endif
 922:/home/adamczer/paparazzi/var/aircrafts/Quad_LisaMX/ap/generated/periodic_telemetry.h ****     }
 923:/home/adamczer/paparazzi/var/aircrafts/Quad_LisaMX/ap/generated/periodic_telemetry.h ****     if (i51 == 0) {
 3078              		.loc 6 923 0
 3079 12c2 9AF80030 		ldrb	r3, [r10]	@ zero_extendqisi2
 3080 12c6 3BB9     		cbnz	r3, .L298
 924:/home/adamczer/paparazzi/var/aircrafts/Quad_LisaMX/ap/generated/periodic_telemetry.h ****       if (telemetry_Main.msgs[TELEMETRY_MAIN_MSG_ROTORCRAFT_TUNE_HOVER_ID].cb != NULL)
 3081              		.loc 6 924 0
 3082 12c8 364B     		ldr	r3, .L788
 3083 12ca 5B68     		ldr	r3, [r3, #4]
 3084 12cc D3F8B037 		ldr	r3, [r3, #1968]
 3085 12d0 13B1     		cbz	r3, .L298
 925:/home/adamczer/paparazzi/var/aircrafts/Quad_LisaMX/ap/generated/periodic_telemetry.h ****         telemetry_Main.msgs[TELEMETRY_MAIN_MSG_ROTORCRAFT_TUNE_HOVER_ID].cb(trans, dev);
 3086              		.loc 6 925 0
 3087 12d2 3548     		ldr	r0, .L788+4
 3088              	.LVL287:
 3089 12d4 3549     		ldr	r1, .L788+8
 3090              	.LVL288:
 3091 12d6 9847     		blx	r3
 3092              	.LVL289:
 3093              	.L298:
 926:/home/adamczer/paparazzi/var/aircrafts/Quad_LisaMX/ap/generated/periodic_telemetry.h **** #if USE_PERIODIC_TELEMETRY_REPORT
 927:/home/adamczer/paparazzi/var/aircrafts/Quad_LisaMX/ap/generated/periodic_telemetry.h ****       else periodic_telemetry_err_report(TELEMETRY_PROCESS_Main, telemetry_mode_Main, TELEMETRY_MAI
 928:/home/adamczer/paparazzi/var/aircrafts/Quad_LisaMX/ap/generated/periodic_telemetry.h **** #endif
 929:/home/adamczer/paparazzi/var/aircrafts/Quad_LisaMX/ap/generated/periodic_telemetry.h ****     }
 930:/home/adamczer/paparazzi/var/aircrafts/Quad_LisaMX/ap/generated/periodic_telemetry.h ****     if (i25 == 1) {
 3094              		.loc 6 930 0
 3095 12d8 2378     		ldrb	r3, [r4]	@ zero_extendqisi2
 3096 12da 012B     		cmp	r3, #1
 3097 12dc 07D1     		bne	.L44
 931:/home/adamczer/paparazzi/var/aircrafts/Quad_LisaMX/ap/generated/periodic_telemetry.h ****       if (telemetry_Main.msgs[TELEMETRY_MAIN_MSG_GUIDANCE_H_INT_ID].cb != NULL)
 3098              		.loc 6 931 0
 3099 12de 314B     		ldr	r3, .L788
 3100 12e0 5B68     		ldr	r3, [r3, #4]
 3101 12e2 D3F80C31 		ldr	r3, [r3, #268]
 3102 12e6 13B1     		cbz	r3, .L44
 932:/home/adamczer/paparazzi/var/aircrafts/Quad_LisaMX/ap/generated/periodic_telemetry.h ****         telemetry_Main.msgs[TELEMETRY_MAIN_MSG_GUIDANCE_H_INT_ID].cb(trans, dev);
 3103              		.loc 6 932 0
 3104 12e8 2F48     		ldr	r0, .L788+4
 3105              	.LVL290:
 3106 12ea 3049     		ldr	r1, .L788+8
 3107              	.LVL291:
 3108 12ec 9847     		blx	r3
 3109              	.LVL292:
 3110              	.L44:
 3111              	.LBE161:
 3112              	.LBE149:
 3113              	.LBE148:
 3114              	.LBE162:
 3115              	.LBE164:
 3116              	.LBB165:
 3117              	.LBB166:
 113:./mcu_periph/sys_time.h ****     sys_time.timer[id].elapsed = FALSE;
 3118              		.loc 2 113 0
 3119 12ee 99F80030 		ldrb	r3, [r9]	@ zero_extendqisi2
 3120 12f2 1422     		movs	r2, #20
 3121 12f4 02FB0377 		mla	r7, r2, r3, r7
 3122 12f8 1037     		adds	r7, r7, #16
 3123 12fa 3B79     		ldrb	r3, [r7, #4]	@ zero_extendqisi2
 3124 12fc 1BB1     		cbz	r3, .L299
 114:./mcu_periph/sys_time.h ****     return TRUE;
 3125              		.loc 2 114 0
 3126 12fe 0023     		movs	r3, #0
 3127 1300 3B71     		strb	r3, [r7, #4]
 3128              	.LBE166:
 3129              	.LBE165:
 217:firmwares/rotorcraft/main.c ****   }
 3130              		.loc 3 217 0
 3131 1302 FFF7FEFF 		bl	baro_periodic
 3132              	.LVL293:
 3133              	.L299:
 3134              	.LBE114:
 3135              	.LBE113:
 3136              	.LBB169:
 3137              	.LBB170:
 3138              	.LBB171:
 3139              	.LBB172:
 3140              		.file 7 "./mcu_periph/uart.h"
   1:./mcu_periph/uart.h **** /*
   2:./mcu_periph/uart.h ****  * Copyright (C) 2010 The Paparazzi Team
   3:./mcu_periph/uart.h ****  *
   4:./mcu_periph/uart.h ****  * This file is part of paparazzi.
   5:./mcu_periph/uart.h ****  *
   6:./mcu_periph/uart.h ****  * paparazzi is free software; you can redistribute it and/or modify
   7:./mcu_periph/uart.h ****  * it under the terms of the GNU General Public License as published by
   8:./mcu_periph/uart.h ****  * the Free Software Foundation; either version 2, or (at your option)
   9:./mcu_periph/uart.h ****  * any later version.
  10:./mcu_periph/uart.h ****  *
  11:./mcu_periph/uart.h ****  * paparazzi is distributed in the hope that it will be useful,
  12:./mcu_periph/uart.h ****  * but WITHOUT ANY WARRANTY; without even the implied warranty of
  13:./mcu_periph/uart.h ****  * MERCHANTABILITY or FITNESS FOR A PARTICULAR PURPOSE.  See the
  14:./mcu_periph/uart.h ****  * GNU General Public License for more details.
  15:./mcu_periph/uart.h ****  *
  16:./mcu_periph/uart.h ****  * You should have received a copy of the GNU General Public License
  17:./mcu_periph/uart.h ****  * along with paparazzi; see the file COPYING.  If not, write to
  18:./mcu_periph/uart.h ****  * the Free Software Foundation, 59 Temple Place - Suite 330,
  19:./mcu_periph/uart.h ****  * Boston, MA 02111-1307, USA.
  20:./mcu_periph/uart.h ****  *
  21:./mcu_periph/uart.h ****  */
  22:./mcu_periph/uart.h **** 
  23:./mcu_periph/uart.h **** /** \file mcu_periph/uart.h
  24:./mcu_periph/uart.h ****  *  \brief arch independent UART (Universal Asynchronous Receiver/Transmitter) API
  25:./mcu_periph/uart.h ****  *
  26:./mcu_periph/uart.h ****  */
  27:./mcu_periph/uart.h **** 
  28:./mcu_periph/uart.h **** #ifndef MCU_PERIPH_UART_H
  29:./mcu_periph/uart.h **** #define MCU_PERIPH_UART_H
  30:./mcu_periph/uart.h **** 
  31:./mcu_periph/uart.h **** #include "mcu_periph/uart_arch.h"
  32:./mcu_periph/uart.h **** #include "mcu_periph/link_device.h"
  33:./mcu_periph/uart.h **** #include "std.h"
  34:./mcu_periph/uart.h **** 
  35:./mcu_periph/uart.h **** #define UART_RX_BUFFER_SIZE 128
  36:./mcu_periph/uart.h **** #define UART_TX_BUFFER_SIZE 128
  37:./mcu_periph/uart.h **** #define UART_DEV_NAME_SIZE 16
  38:./mcu_periph/uart.h **** 
  39:./mcu_periph/uart.h **** /*
  40:./mcu_periph/uart.h ****  * UART Baud rate defines in arch/x/mcu_periph/uart_arch.h
  41:./mcu_periph/uart.h ****  */
  42:./mcu_periph/uart.h **** 
  43:./mcu_periph/uart.h **** #define UBITS_7 7
  44:./mcu_periph/uart.h **** #define UBITS_8 8
  45:./mcu_periph/uart.h **** 
  46:./mcu_periph/uart.h **** #define USTOP_1 1
  47:./mcu_periph/uart.h **** #define USTOP_2 2
  48:./mcu_periph/uart.h **** 
  49:./mcu_periph/uart.h **** #define UPARITY_NO    0
  50:./mcu_periph/uart.h **** #define UPARITY_ODD   1
  51:./mcu_periph/uart.h **** #define UPARITY_EVEN  2
  52:./mcu_periph/uart.h **** 
  53:./mcu_periph/uart.h **** /**
  54:./mcu_periph/uart.h ****  * UART peripheral
  55:./mcu_periph/uart.h ****  */
  56:./mcu_periph/uart.h **** struct uart_periph {
  57:./mcu_periph/uart.h ****   /** Receive buffer */
  58:./mcu_periph/uart.h ****   uint8_t rx_buf[UART_RX_BUFFER_SIZE];
  59:./mcu_periph/uart.h ****   uint16_t rx_insert_idx;
  60:./mcu_periph/uart.h ****   uint16_t rx_extract_idx;
  61:./mcu_periph/uart.h ****   /** Transmit buffer */
  62:./mcu_periph/uart.h ****   uint8_t tx_buf[UART_TX_BUFFER_SIZE];
  63:./mcu_periph/uart.h ****   uint16_t tx_insert_idx;
  64:./mcu_periph/uart.h ****   uint16_t tx_extract_idx;
  65:./mcu_periph/uart.h ****   uint8_t tx_running;
  66:./mcu_periph/uart.h ****   /** UART Register */
  67:./mcu_periph/uart.h ****   void *reg_addr;
  68:./mcu_periph/uart.h ****   /** UART Dev (linux) */
  69:./mcu_periph/uart.h ****   char dev[UART_DEV_NAME_SIZE];
  70:./mcu_periph/uart.h ****   volatile uint16_t ore;    ///< overrun error counter
  71:./mcu_periph/uart.h ****   volatile uint16_t ne_err; ///< noise error counter
  72:./mcu_periph/uart.h ****   volatile uint16_t fe_err; ///< framing error counter
  73:./mcu_periph/uart.h ****   /** Generic device interface */
  74:./mcu_periph/uart.h ****   struct link_device device;
  75:./mcu_periph/uart.h **** };
  76:./mcu_periph/uart.h **** 
  77:./mcu_periph/uart.h **** 
  78:./mcu_periph/uart.h **** extern void uart_periph_init(struct uart_periph *p);
  79:./mcu_periph/uart.h **** extern void uart_periph_set_baudrate(struct uart_periph *p, uint32_t baud);
  80:./mcu_periph/uart.h **** extern void uart_periph_set_bits_stop_parity(struct uart_periph *p, uint8_t bits, uint8_t stop, uin
  81:./mcu_periph/uart.h **** extern void uart_periph_set_mode(struct uart_periph *p, bool_t tx_enabled, bool_t rx_enabled, bool_
  82:./mcu_periph/uart.h **** extern void uart_transmit(struct uart_periph *p, uint8_t data);
  83:./mcu_periph/uart.h **** extern bool_t uart_check_free_space(struct uart_periph *p, uint8_t len);
  84:./mcu_periph/uart.h **** extern uint8_t uart_getch(struct uart_periph *p);
  85:./mcu_periph/uart.h **** extern void uart_event(void);
  86:./mcu_periph/uart.h **** 
  87:./mcu_periph/uart.h **** /**
  88:./mcu_periph/uart.h ****  * Check UART for available chars in receive buffer.
  89:./mcu_periph/uart.h ****  * @return number of chars in the buffer
  90:./mcu_periph/uart.h ****  */
  91:./mcu_periph/uart.h **** static inline uint16_t uart_char_available(struct uart_periph *p)
  92:./mcu_periph/uart.h **** {
  93:./mcu_periph/uart.h ****   int16_t available = p->rx_insert_idx - p->rx_extract_idx;
 3141              		.loc 7 93 0
 3142 1306 304F     		ldr	r7, .L788+36
 3143              	.LBE172:
 3144              	.LBE171:
 303:firmwares/rotorcraft/main.c **** }
 304:firmwares/rotorcraft/main.c **** 
 305:firmwares/rotorcraft/main.c **** STATIC_INLINE void main_event(void)
 306:firmwares/rotorcraft/main.c **** {
 307:firmwares/rotorcraft/main.c **** 
 308:firmwares/rotorcraft/main.c ****   i2c_event();
 3145              		.loc 3 308 0
 3146 1308 FFF7FEFF 		bl	i2c_event
 3147              	.LVL294:
 309:firmwares/rotorcraft/main.c **** 
 310:firmwares/rotorcraft/main.c **** #ifndef SITL
 311:firmwares/rotorcraft/main.c ****   uart_event();
 3148              		.loc 3 311 0
 3149 130c FFF7FEFF 		bl	uart_event
 3150              	.LVL295:
 3151              	.LBB174:
 3152              	.LBB173:
 3153              		.loc 7 93 0
 3154 1310 B7F88220 		ldrh	r2, [r7, #130]
 3155 1314 B7F88030 		ldrh	r3, [r7, #128]
 3156 1318 9B1A     		subs	r3, r3, r2
 3157 131a 9BB2     		uxth	r3, r3
 3158 131c 9AB2     		uxth	r2, r3
 3159              	.LVL296:
  94:./mcu_periph/uart.h ****   if (available < 0) {
 3160              		.loc 7 94 0
 3161 131e 1104     		lsls	r1, r2, #16
  95:./mcu_periph/uart.h ****     available += UART_RX_BUFFER_SIZE;
 3162              		.loc 7 95 0
 3163 1320 44BF     		itt	mi
 3164 1322 8033     		addmi	r3, r3, #128
 3165 1324 9AB2     		uxthmi	r2, r3
 3166              	.LVL297:
 3167              	.LBE173:
 3168              	.LBE174:
 312:firmwares/rotorcraft/main.c **** #endif
 313:firmwares/rotorcraft/main.c **** 
 314:firmwares/rotorcraft/main.c **** #if USE_UDP
 315:firmwares/rotorcraft/main.c ****   udp_event();
 316:firmwares/rotorcraft/main.c **** #endif
 317:firmwares/rotorcraft/main.c **** 
 318:firmwares/rotorcraft/main.c **** #if USE_USB_SERIAL
 319:firmwares/rotorcraft/main.c ****   VCOM_event();
 320:firmwares/rotorcraft/main.c **** #endif
 321:firmwares/rotorcraft/main.c **** 
 322:firmwares/rotorcraft/main.c ****   DatalinkEvent();
 3169              		.loc 3 322 0
 3170 1326 002A     		cmp	r2, #0
 3171 1328 00F0A180 		beq	.L302
 3172              	.LVL298:
 3173              	.L553:
 3174              	.LBB175:
 3175              	.LBB176:
  93:./mcu_periph/uart.h ****   if (available < 0) {
 3176              		.loc 7 93 0
 3177 132c B7F88220 		ldrh	r2, [r7, #130]
 3178 1330 B7F88030 		ldrh	r3, [r7, #128]
 3179 1334 9B1A     		subs	r3, r3, r2
 3180 1336 9BB2     		uxth	r3, r3
 3181 1338 9AB2     		uxth	r2, r3
 3182              	.LVL299:
  94:./mcu_periph/uart.h ****     available += UART_RX_BUFFER_SIZE;
 3183              		.loc 7 94 0
 3184 133a 1404     		lsls	r4, r2, #16
 3185              		.loc 7 95 0
 3186 133c 44BF     		itt	mi
 3187 133e 8033     		addmi	r3, r3, #128
 3188 1340 9AB2     		uxthmi	r2, r3
 3189              	.LVL300:
 3190 1342 224C     		ldr	r4, .L788+40
 3191              	.LBE176:
 3192              	.LBE175:
 3193              		.loc 3 322 0
 3194 1344 002A     		cmp	r2, #0
 3195 1346 7CD0     		beq	.L316
 3196 1348 94F80131 		ldrb	r3, [r4, #257]	@ zero_extendqisi2
 3197 134c 002B     		cmp	r3, #0
 3198 134e 78D1     		bne	.L316
 3199 1350 1D48     		ldr	r0, .L788+36
 3200 1352 FFF7FEFF 		bl	uart_getch
 3201              	.LVL301:
 3202              	.LBB177:
 3203              	.LBB178:
 3204              		.file 8 "./subsystems/datalink/pprz_transport.h"
   1:./subsystems/datalink/pprz_transport.h **** /*
   2:./subsystems/datalink/pprz_transport.h ****  * Copyright (C) 2003  Pascal Brisset, Antoine Drouin
   3:./subsystems/datalink/pprz_transport.h ****  * Copyright (C) 2014  Gautier Hattenberger <gautier.hattenberger@enac.fr>
   4:./subsystems/datalink/pprz_transport.h ****  *
   5:./subsystems/datalink/pprz_transport.h ****  * This file is part of paparazzi.
   6:./subsystems/datalink/pprz_transport.h ****  *
   7:./subsystems/datalink/pprz_transport.h ****  * paparazzi is free software; you can redistribute it and/or modify
   8:./subsystems/datalink/pprz_transport.h ****  * it under the terms of the GNU General Public License as published by
   9:./subsystems/datalink/pprz_transport.h ****  * the Free Software Foundation; either version 2, or (at your option)
  10:./subsystems/datalink/pprz_transport.h ****  * any later version.
  11:./subsystems/datalink/pprz_transport.h ****  *
  12:./subsystems/datalink/pprz_transport.h ****  * paparazzi is distributed in the hope that it will be useful,
  13:./subsystems/datalink/pprz_transport.h ****  * but WITHOUT ANY WARRANTY; without even the implied warranty of
  14:./subsystems/datalink/pprz_transport.h ****  * MERCHANTABILITY or FITNESS FOR A PARTICULAR PURPOSE.  See the
  15:./subsystems/datalink/pprz_transport.h ****  * GNU General Public License for more details.
  16:./subsystems/datalink/pprz_transport.h ****  *
  17:./subsystems/datalink/pprz_transport.h ****  * You should have received a copy of the GNU General Public License
  18:./subsystems/datalink/pprz_transport.h ****  * along with paparazzi; see the file COPYING.  If not, see
  19:./subsystems/datalink/pprz_transport.h ****  * <http://www.gnu.org/licenses/>.
  20:./subsystems/datalink/pprz_transport.h ****  *
  21:./subsystems/datalink/pprz_transport.h ****  */
  22:./subsystems/datalink/pprz_transport.h **** 
  23:./subsystems/datalink/pprz_transport.h **** /**
  24:./subsystems/datalink/pprz_transport.h ****  * @file subsystems/datalink/pprz_transport.h
  25:./subsystems/datalink/pprz_transport.h ****  *
  26:./subsystems/datalink/pprz_transport.h ****  * Building and parsing Paparazzi frames.
  27:./subsystems/datalink/pprz_transport.h ****  *
  28:./subsystems/datalink/pprz_transport.h ****  * Pprz frame:
  29:./subsystems/datalink/pprz_transport.h ****  *
  30:./subsystems/datalink/pprz_transport.h ****  * |STX|length|... payload=(length-4) bytes ...|Checksum A|Checksum B|
  31:./subsystems/datalink/pprz_transport.h ****  *
  32:./subsystems/datalink/pprz_transport.h ****  * where checksum is computed over length and payload:
  33:./subsystems/datalink/pprz_transport.h ****  * @code
  34:./subsystems/datalink/pprz_transport.h ****  * ck_A = ck_B = length
  35:./subsystems/datalink/pprz_transport.h ****  * for each byte b in payload
  36:./subsystems/datalink/pprz_transport.h ****  *     ck_A += b;
  37:./subsystems/datalink/pprz_transport.h ****  *     ck_b += ck_A;
  38:./subsystems/datalink/pprz_transport.h ****  * @endcode
  39:./subsystems/datalink/pprz_transport.h ****  */
  40:./subsystems/datalink/pprz_transport.h **** 
  41:./subsystems/datalink/pprz_transport.h **** #ifndef PPRZ_TRANSPORT_H
  42:./subsystems/datalink/pprz_transport.h **** #define PPRZ_TRANSPORT_H
  43:./subsystems/datalink/pprz_transport.h **** 
  44:./subsystems/datalink/pprz_transport.h **** #include <inttypes.h>
  45:./subsystems/datalink/pprz_transport.h **** #include "std.h"
  46:./subsystems/datalink/pprz_transport.h **** #ifndef PPRZ_DATALINK_EXPORT
  47:./subsystems/datalink/pprz_transport.h **** #include "subsystems/datalink/datalink.h"
  48:./subsystems/datalink/pprz_transport.h **** #include "subsystems/datalink/transport.h"
  49:./subsystems/datalink/pprz_transport.h **** #else /* PPRZ_DATALINK_EXPORT defined */
  50:./subsystems/datalink/pprz_transport.h **** #include "datalink.h"
  51:./subsystems/datalink/pprz_transport.h **** #include "transport.h"
  52:./subsystems/datalink/pprz_transport.h **** #endif
  53:./subsystems/datalink/pprz_transport.h **** 
  54:./subsystems/datalink/pprz_transport.h **** /* PPRZ Transport
  55:./subsystems/datalink/pprz_transport.h ****  */
  56:./subsystems/datalink/pprz_transport.h **** 
  57:./subsystems/datalink/pprz_transport.h **** #define STX  0x99
  58:./subsystems/datalink/pprz_transport.h **** 
  59:./subsystems/datalink/pprz_transport.h **** // PPRZ parsing state machine
  60:./subsystems/datalink/pprz_transport.h **** #define UNINIT      0
  61:./subsystems/datalink/pprz_transport.h **** #define GOT_STX     1
  62:./subsystems/datalink/pprz_transport.h **** #define GOT_LENGTH  2
  63:./subsystems/datalink/pprz_transport.h **** #define GOT_PAYLOAD 3
  64:./subsystems/datalink/pprz_transport.h **** #define GOT_CRC1    4
  65:./subsystems/datalink/pprz_transport.h **** 
  66:./subsystems/datalink/pprz_transport.h **** struct pprz_transport {
  67:./subsystems/datalink/pprz_transport.h ****   // generic reception interface
  68:./subsystems/datalink/pprz_transport.h ****   struct transport_rx trans_rx;
  69:./subsystems/datalink/pprz_transport.h ****   // specific pprz transport_rx variables
  70:./subsystems/datalink/pprz_transport.h ****   uint8_t status;
  71:./subsystems/datalink/pprz_transport.h ****   uint8_t payload_idx;
  72:./subsystems/datalink/pprz_transport.h ****   uint8_t ck_a_rx, ck_b_rx;
  73:./subsystems/datalink/pprz_transport.h ****   // generic transmission interface
  74:./subsystems/datalink/pprz_transport.h ****   struct transport_tx trans_tx;
  75:./subsystems/datalink/pprz_transport.h ****   // specific pprz transport_tx variables
  76:./subsystems/datalink/pprz_transport.h ****   uint8_t ck_a_tx, ck_b_tx;
  77:./subsystems/datalink/pprz_transport.h **** };
  78:./subsystems/datalink/pprz_transport.h **** 
  79:./subsystems/datalink/pprz_transport.h **** extern struct pprz_transport pprz_tp;
  80:./subsystems/datalink/pprz_transport.h **** 
  81:./subsystems/datalink/pprz_transport.h **** // Init function
  82:./subsystems/datalink/pprz_transport.h **** extern void pprz_transport_init(struct pprz_transport *t);
  83:./subsystems/datalink/pprz_transport.h **** 
  84:./subsystems/datalink/pprz_transport.h **** static inline void parse_pprz(struct pprz_transport *t, uint8_t c)
  85:./subsystems/datalink/pprz_transport.h **** {
  86:./subsystems/datalink/pprz_transport.h ****   switch (t->status) {
 3205              		.loc 8 86 0
 3206 1356 94F80431 		ldrb	r3, [r4, #260]	@ zero_extendqisi2
 3207 135a 042B     		cmp	r3, #4
 3208 135c 68D8     		bhi	.L303
 3209 135e DFE803F0 		tbb	[pc, r3]
 3210              	.L305:
 3211 1362 03       		.byte	(.L304-.L305)/2
 3212 1363 07       		.byte	(.L306-.L305)/2
 3213 1364 3D       		.byte	(.L307-.L305)/2
 3214 1365 55       		.byte	(.L308-.L305)/2
 3215 1366 5E       		.byte	(.L309-.L305)/2
 3216 1367 00       		.p2align 1
 3217              	.L304:
  87:./subsystems/datalink/pprz_transport.h ****     case UNINIT:
  88:./subsystems/datalink/pprz_transport.h ****       if (c == STX) {
 3218              		.loc 8 88 0
 3219 1368 9928     		cmp	r0, #153
 3220 136a DFD1     		bne	.L553
  89:./subsystems/datalink/pprz_transport.h ****         t->status++;
 3221              		.loc 8 89 0
 3222 136c 0123     		movs	r3, #1
 3223 136e 65E0     		b	.L741
 3224              	.L306:
  90:./subsystems/datalink/pprz_transport.h ****       }
  91:./subsystems/datalink/pprz_transport.h ****       break;
  92:./subsystems/datalink/pprz_transport.h ****     case GOT_STX:
  93:./subsystems/datalink/pprz_transport.h ****       if (t->trans_rx.msg_received) {
 3225              		.loc 8 93 0
 3226 1370 94F80121 		ldrb	r2, [r4, #257]	@ zero_extendqisi2
 3227 1374 154B     		ldr	r3, .L788+40
 3228 1376 02F0FF01 		and	r1, r2, #255
 3229 137a 2AB1     		cbz	r2, .L312
  94:./subsystems/datalink/pprz_transport.h ****         t->trans_rx.ovrn++;
 3230              		.loc 8 94 0
 3231 137c 93F80221 		ldrb	r2, [r3, #258]	@ zero_extendqisi2
 3232 1380 0132     		adds	r2, r2, #1
 3233 1382 83F80221 		strb	r2, [r3, #258]
 3234 1386 53E0     		b	.L303
 3235              	.L312:
  95:./subsystems/datalink/pprz_transport.h ****         goto error;
  96:./subsystems/datalink/pprz_transport.h ****       }
  97:./subsystems/datalink/pprz_transport.h ****       t->trans_rx.payload_len = c - 4; /* Counting STX, LENGTH and CRC1 and CRC2 */
 3236              		.loc 8 97 0
 3237 1388 021F     		subs	r2, r0, #4
 3238 138a D2B2     		uxtb	r2, r2
 3239 138c 83F80021 		strb	r2, [r3, #256]
  98:./subsystems/datalink/pprz_transport.h ****       t->ck_a_rx = t->ck_b_rx = c;
  99:./subsystems/datalink/pprz_transport.h ****       t->status++;
 3240              		.loc 8 99 0
 3241 1390 0222     		movs	r2, #2
  98:./subsystems/datalink/pprz_transport.h ****       t->ck_a_rx = t->ck_b_rx = c;
 3242              		.loc 8 98 0
 3243 1392 83F80701 		strb	r0, [r3, #263]
 3244 1396 83F80601 		strb	r0, [r3, #262]
 3245              		.loc 8 99 0
 3246 139a 83F80421 		strb	r2, [r3, #260]
 100:./subsystems/datalink/pprz_transport.h ****       t->payload_idx = 0;
 3247              		.loc 8 100 0
 3248 139e 83F80511 		strb	r1, [r3, #261]
 3249 13a2 C3E7     		b	.L553
 3250              	.L789:
 3251              		.align	2
 3252              	.L788:
 3253 13a4 00000000 		.word	telemetry_Main
 3254 13a8 08010000 		.word	pprz_tp+264
 3255 13ac 28010000 		.word	uart2+296
 3256 13b0 00000000 		.word	.LANCHOR69
 3257 13b4 00000000 		.word	.LANCHOR79
 3258 13b8 00000000 		.word	.LANCHOR80
 3259 13bc 00000000 		.word	.LANCHOR82
 3260 13c0 00000000 		.word	.LANCHOR83
 3261 13c4 00000000 		.word	.LANCHOR85
 3262 13c8 00000000 		.word	uart2
 3263 13cc 00000000 		.word	pprz_tp
 3264 13d0 00000000 		.word	.LANCHOR78
 3265 13d4 00000000 		.word	.LANCHOR81
 3266 13d8 00000000 		.word	.LANCHOR84
 3267              	.L307:
 101:./subsystems/datalink/pprz_transport.h ****       break;
 102:./subsystems/datalink/pprz_transport.h ****     case GOT_LENGTH:
 103:./subsystems/datalink/pprz_transport.h ****       t->trans_rx.payload[t->payload_idx] = c;
 3268              		.loc 8 103 0
 3269 13dc 94F80531 		ldrb	r3, [r4, #261]	@ zero_extendqisi2
 104:./subsystems/datalink/pprz_transport.h ****       t->ck_a_rx += c; t->ck_b_rx += t->ck_a_rx;
 3270              		.loc 8 104 0
 3271 13e0 94F80621 		ldrb	r2, [r4, #262]	@ zero_extendqisi2
 103:./subsystems/datalink/pprz_transport.h ****       t->ck_a_rx += c; t->ck_b_rx += t->ck_a_rx;
 3272              		.loc 8 103 0
 3273 13e4 E054     		strb	r0, [r4, r3]
 3274              		.loc 8 104 0
 3275 13e6 1044     		add	r0, r0, r2
 3276              	.LVL302:
 3277 13e8 94F80721 		ldrb	r2, [r4, #263]	@ zero_extendqisi2
 3278 13ec C0B2     		uxtb	r0, r0
 3279 13ee 84F80601 		strb	r0, [r4, #262]
 105:./subsystems/datalink/pprz_transport.h ****       t->payload_idx++;
 3280              		.loc 8 105 0
 3281 13f2 0133     		adds	r3, r3, #1
 3282              	.LVL303:
 104:./subsystems/datalink/pprz_transport.h ****       t->ck_a_rx += c; t->ck_b_rx += t->ck_a_rx;
 3283              		.loc 8 104 0
 3284 13f4 1044     		add	r0, r0, r2
 106:./subsystems/datalink/pprz_transport.h ****       if (t->payload_idx == t->trans_rx.payload_len) {
 3285              		.loc 8 106 0
 3286 13f6 94F80021 		ldrb	r2, [r4, #256]	@ zero_extendqisi2
 104:./subsystems/datalink/pprz_transport.h ****       t->payload_idx++;
 3287              		.loc 8 104 0
 3288 13fa 84F80701 		strb	r0, [r4, #263]
 105:./subsystems/datalink/pprz_transport.h ****       t->payload_idx++;
 3289              		.loc 8 105 0
 3290 13fe DBB2     		uxtb	r3, r3
 3291              	.LVL304:
 3292              		.loc 8 106 0
 3293 1400 9342     		cmp	r3, r2
 105:./subsystems/datalink/pprz_transport.h ****       t->payload_idx++;
 3294              		.loc 8 105 0
 3295 1402 84F80531 		strb	r3, [r4, #261]
 3296              	.LVL305:
 3297              		.loc 8 106 0
 3298 1406 91D1     		bne	.L553
 107:./subsystems/datalink/pprz_transport.h ****         t->status++;
 3299              		.loc 8 107 0
 3300 1408 0322     		movs	r2, #3
 3301 140a 04E0     		b	.L740
 3302              	.LVL306:
 3303              	.L308:
 108:./subsystems/datalink/pprz_transport.h ****       }
 109:./subsystems/datalink/pprz_transport.h ****       break;
 110:./subsystems/datalink/pprz_transport.h ****     case GOT_PAYLOAD:
 111:./subsystems/datalink/pprz_transport.h ****       if (c != t->ck_a_rx) {
 3304              		.loc 8 111 0
 3305 140c 94F80631 		ldrb	r3, [r4, #262]	@ zero_extendqisi2
 3306 1410 8342     		cmp	r3, r0
 3307 1412 0DD1     		bne	.L303
 112:./subsystems/datalink/pprz_transport.h ****         goto error;
 113:./subsystems/datalink/pprz_transport.h ****       }
 114:./subsystems/datalink/pprz_transport.h ****       t->status++;
 3308              		.loc 8 114 0
 3309 1414 0422     		movs	r2, #4
 3310              	.LVL307:
 3311              	.L740:
 3312 1416 854B     		ldr	r3, .L790
 3313 1418 83F80421 		strb	r2, [r3, #260]
 3314 141c 86E7     		b	.L553
 3315              	.LVL308:
 3316              	.L309:
 115:./subsystems/datalink/pprz_transport.h ****       break;
 116:./subsystems/datalink/pprz_transport.h ****     case GOT_CRC1:
 117:./subsystems/datalink/pprz_transport.h ****       if (c != t->ck_b_rx) {
 3317              		.loc 8 117 0
 3318 141e 94F80731 		ldrb	r3, [r4, #263]	@ zero_extendqisi2
 3319 1422 8342     		cmp	r3, r0
 3320 1424 04D1     		bne	.L303
 118:./subsystems/datalink/pprz_transport.h ****         goto error;
 119:./subsystems/datalink/pprz_transport.h ****       }
 120:./subsystems/datalink/pprz_transport.h ****       t->trans_rx.msg_received = TRUE;
 3321              		.loc 8 120 0
 3322 1426 814B     		ldr	r3, .L790
 3323 1428 0122     		movs	r2, #1
 3324 142a 83F80121 		strb	r2, [r3, #257]
 3325 142e 04E0     		b	.L314
 3326              	.L303:
 121:./subsystems/datalink/pprz_transport.h ****       goto restart;
 122:./subsystems/datalink/pprz_transport.h ****     default:
 123:./subsystems/datalink/pprz_transport.h ****       goto error;
 124:./subsystems/datalink/pprz_transport.h ****   }
 125:./subsystems/datalink/pprz_transport.h ****   return;
 126:./subsystems/datalink/pprz_transport.h **** error:
 127:./subsystems/datalink/pprz_transport.h ****   t->trans_rx.error++;
 3327              		.loc 8 127 0
 3328 1430 94F80331 		ldrb	r3, [r4, #259]	@ zero_extendqisi2
 3329 1434 0133     		adds	r3, r3, #1
 3330 1436 84F80331 		strb	r3, [r4, #259]
 3331              	.L314:
 128:./subsystems/datalink/pprz_transport.h **** restart:
 129:./subsystems/datalink/pprz_transport.h ****   t->status = UNINIT;
 3332              		.loc 8 129 0
 3333 143a 0023     		movs	r3, #0
 3334              	.L741:
 3335 143c 84F80431 		strb	r3, [r4, #260]
 3336 1440 74E7     		b	.L553
 3337              	.LVL309:
 3338              	.L316:
 3339              	.LBE178:
 3340              	.LBE177:
 3341              		.loc 3 322 0
 3342 1442 94F80131 		ldrb	r3, [r4, #257]	@ zero_extendqisi2
 3343 1446 93B1     		cbz	r3, .L302
 3344 1448 0023     		movs	r3, #0
 3345              	.LVL310:
 3346              	.L318:
 3347              	.LBB179:
 3348              	.LBB180:
 130:./subsystems/datalink/pprz_transport.h ****   return;
 131:./subsystems/datalink/pprz_transport.h **** }
 132:./subsystems/datalink/pprz_transport.h **** 
 133:./subsystems/datalink/pprz_transport.h **** static inline void pprz_parse_payload(struct pprz_transport *t)
 134:./subsystems/datalink/pprz_transport.h **** {
 135:./subsystems/datalink/pprz_transport.h ****   uint8_t i;
 136:./subsystems/datalink/pprz_transport.h ****   for (i = 0; i < t->trans_rx.payload_len; i++) {
 3349              		.loc 8 136 0
 3350 144a 94F80011 		ldrb	r1, [r4, #256]	@ zero_extendqisi2
 3351 144e 774A     		ldr	r2, .L790
 3352 1450 581C     		adds	r0, r3, #1
 3353 1452 DBB2     		uxtb	r3, r3
 3354 1454 8B42     		cmp	r3, r1
 3355 1456 04D2     		bcs	.L768
 137:./subsystems/datalink/pprz_transport.h ****     dl_buffer[i] = t->trans_rx.payload[i];
 3356              		.loc 8 137 0
 3357 1458 D15C     		ldrb	r1, [r2, r3]	@ zero_extendqisi2
 3358 145a 754A     		ldr	r2, .L790+4
 3359 145c D154     		strb	r1, [r2, r3]
 3360              	.LVL311:
 3361 145e 0346     		mov	r3, r0
 3362 1460 F3E7     		b	.L318
 3363              	.LVL312:
 3364              	.L768:
 138:./subsystems/datalink/pprz_transport.h ****   }
 139:./subsystems/datalink/pprz_transport.h ****   dl_msg_available = TRUE;
 3365              		.loc 8 139 0
 3366 1462 744B     		ldr	r3, .L790+8
 3367              	.LVL313:
 3368 1464 0121     		movs	r1, #1
 3369 1466 1970     		strb	r1, [r3]
 3370              	.LBE180:
 3371              	.LBE179:
 3372              		.loc 3 322 0
 3373 1468 0023     		movs	r3, #0
 3374 146a 82F80131 		strb	r3, [r2, #257]
 3375              	.LVL314:
 3376              	.L302:
 3377 146e 714C     		ldr	r4, .L790+8
 3378 1470 2378     		ldrb	r3, [r4]	@ zero_extendqisi2
 3379 1472 1BB1     		cbz	r3, .L321
 3380 1474 FFF7FEFF 		bl	dl_parse_msg
 3381              	.LVL315:
 3382 1478 0023     		movs	r3, #0
 3383 147a 2370     		strb	r3, [r4]
 3384              	.L321:
 323:firmwares/rotorcraft/main.c **** 
 324:firmwares/rotorcraft/main.c ****   if (autopilot_rc) {
 3385              		.loc 3 324 0
 3386 147c 6E4B     		ldr	r3, .L790+12
 3387 147e 1B78     		ldrb	r3, [r3]	@ zero_extendqisi2
 3388 1480 13B1     		cbz	r3, .L322
 325:firmwares/rotorcraft/main.c ****     RadioControlEvent(autopilot_on_rc_frame);
 3389              		.loc 3 325 0
 3390 1482 6E48     		ldr	r0, .L790+16
 3391 1484 FFF7FEFF 		bl	RadioControlEventImp
 3392              	.LVL316:
 3393              	.L322:
 3394              	.LBB181:
 3395              	.LBB182:
 3396              		.file 9 "./subsystems/imu/imu_aspirin_2_spi.h"
   1:./subsystems/imu/imu_aspirin_2_spi.h **** /*
   2:./subsystems/imu/imu_aspirin_2_spi.h ****  * Copyright (C) 2013 Felix Ruess <felix.ruess@gmail.com>
   3:./subsystems/imu/imu_aspirin_2_spi.h ****  *
   4:./subsystems/imu/imu_aspirin_2_spi.h ****  * This file is part of paparazzi.
   5:./subsystems/imu/imu_aspirin_2_spi.h ****  *
   6:./subsystems/imu/imu_aspirin_2_spi.h ****  * paparazzi is free software; you can redistribute it and/or modify
   7:./subsystems/imu/imu_aspirin_2_spi.h ****  * it under the terms of the GNU General Public License as published by
   8:./subsystems/imu/imu_aspirin_2_spi.h ****  * the Free Software Foundation; either version 2, or (at your option)
   9:./subsystems/imu/imu_aspirin_2_spi.h ****  * any later version.
  10:./subsystems/imu/imu_aspirin_2_spi.h ****  *
  11:./subsystems/imu/imu_aspirin_2_spi.h ****  * paparazzi is distributed in the hope that it will be useful,
  12:./subsystems/imu/imu_aspirin_2_spi.h ****  * but WITHOUT ANY WARRANTY; without even the implied warranty of
  13:./subsystems/imu/imu_aspirin_2_spi.h ****  * MERCHANTABILITY or FITNESS FOR A PARTICULAR PURPOSE.  See the
  14:./subsystems/imu/imu_aspirin_2_spi.h ****  * GNU General Public License for more details.
  15:./subsystems/imu/imu_aspirin_2_spi.h ****  *
  16:./subsystems/imu/imu_aspirin_2_spi.h ****  * You should have received a copy of the GNU General Public License
  17:./subsystems/imu/imu_aspirin_2_spi.h ****  * along with paparazzi; see the file COPYING.  If not, write to
  18:./subsystems/imu/imu_aspirin_2_spi.h ****  * the Free Software Foundation, 59 Temple Place - Suite 330,
  19:./subsystems/imu/imu_aspirin_2_spi.h ****  * Boston, MA 02111-1307, USA.
  20:./subsystems/imu/imu_aspirin_2_spi.h ****  */
  21:./subsystems/imu/imu_aspirin_2_spi.h **** 
  22:./subsystems/imu/imu_aspirin_2_spi.h **** /**
  23:./subsystems/imu/imu_aspirin_2_spi.h ****  * @file subsystems/imu/imu_aspirin_2_spi.h
  24:./subsystems/imu/imu_aspirin_2_spi.h ****  * Driver for the Aspirin v2.x IMU using SPI for the MPU6000.
  25:./subsystems/imu/imu_aspirin_2_spi.h ****  */
  26:./subsystems/imu/imu_aspirin_2_spi.h **** 
  27:./subsystems/imu/imu_aspirin_2_spi.h **** #ifndef IMU_ASPIRIN_2_SPI_H
  28:./subsystems/imu/imu_aspirin_2_spi.h **** #define IMU_ASPIRIN_2_SPI_H
  29:./subsystems/imu/imu_aspirin_2_spi.h **** 
  30:./subsystems/imu/imu_aspirin_2_spi.h **** #include "std.h"
  31:./subsystems/imu/imu_aspirin_2_spi.h **** #include "generated/airframe.h"
  32:./subsystems/imu/imu_aspirin_2_spi.h **** #include "subsystems/imu.h"
  33:./subsystems/imu/imu_aspirin_2_spi.h **** 
  34:./subsystems/imu/imu_aspirin_2_spi.h **** /* default sensitivitiy */
  35:./subsystems/imu/imu_aspirin_2_spi.h **** #include "subsystems/imu/imu_mpu60x0_defaults.h"
  36:./subsystems/imu/imu_aspirin_2_spi.h **** #include "peripherals/mpu60x0_spi.h"
  37:./subsystems/imu/imu_aspirin_2_spi.h **** 
  38:./subsystems/imu/imu_aspirin_2_spi.h **** struct ImuAspirin2Spi {
  39:./subsystems/imu/imu_aspirin_2_spi.h ****   volatile bool_t gyro_valid;
  40:./subsystems/imu/imu_aspirin_2_spi.h ****   volatile bool_t accel_valid;
  41:./subsystems/imu/imu_aspirin_2_spi.h ****   volatile bool_t mag_valid;
  42:./subsystems/imu/imu_aspirin_2_spi.h ****   struct Mpu60x0_Spi mpu;
  43:./subsystems/imu/imu_aspirin_2_spi.h **** 
  44:./subsystems/imu/imu_aspirin_2_spi.h ****   struct spi_transaction wait_slave4_trans;
  45:./subsystems/imu/imu_aspirin_2_spi.h ****   volatile uint8_t wait_slave4_tx_buf[1];
  46:./subsystems/imu/imu_aspirin_2_spi.h ****   volatile uint8_t wait_slave4_rx_buf[2];
  47:./subsystems/imu/imu_aspirin_2_spi.h ****   volatile bool_t slave4_ready;
  48:./subsystems/imu/imu_aspirin_2_spi.h **** };
  49:./subsystems/imu/imu_aspirin_2_spi.h **** 
  50:./subsystems/imu/imu_aspirin_2_spi.h **** extern struct ImuAspirin2Spi imu_aspirin2;
  51:./subsystems/imu/imu_aspirin_2_spi.h **** 
  52:./subsystems/imu/imu_aspirin_2_spi.h **** extern void imu_aspirin2_event(void);
  53:./subsystems/imu/imu_aspirin_2_spi.h **** 
  54:./subsystems/imu/imu_aspirin_2_spi.h **** 
  55:./subsystems/imu/imu_aspirin_2_spi.h **** static inline void ImuEvent(void (* _gyro_handler)(void), void (* _accel_handler)(void), void (* _m
  56:./subsystems/imu/imu_aspirin_2_spi.h **** {
  57:./subsystems/imu/imu_aspirin_2_spi.h ****   imu_aspirin2_event();
  58:./subsystems/imu/imu_aspirin_2_spi.h ****   if (imu_aspirin2.gyro_valid) {
 3397              		.loc 9 58 0
 3398 1488 6D4C     		ldr	r4, .L790+20
  57:./subsystems/imu/imu_aspirin_2_spi.h ****   if (imu_aspirin2.gyro_valid) {
 3399              		.loc 9 57 0
 3400 148a FFF7FEFF 		bl	imu_aspirin2_event
 3401              	.LVL317:
 3402              		.loc 9 58 0
 3403 148e 2378     		ldrb	r3, [r4]	@ zero_extendqisi2
 3404 1490 53B3     		cbz	r3, .L324
  59:./subsystems/imu/imu_aspirin_2_spi.h ****     imu_aspirin2.gyro_valid = FALSE;
 3405              		.loc 9 59 0
 3406 1492 0023     		movs	r3, #0
 3407 1494 2370     		strb	r3, [r4]
 3408              	.LBB183:
 3409              	.LBB184:
 326:firmwares/rotorcraft/main.c ****   }
 327:firmwares/rotorcraft/main.c **** 
 328:firmwares/rotorcraft/main.c ****   ImuEvent(on_gyro_event, on_accel_event, on_mag_event);
 329:firmwares/rotorcraft/main.c **** 
 330:firmwares/rotorcraft/main.c **** #if USE_BARO_BOARD
 331:firmwares/rotorcraft/main.c ****   BaroEvent();
 332:firmwares/rotorcraft/main.c **** #endif
 333:firmwares/rotorcraft/main.c **** 
 334:firmwares/rotorcraft/main.c **** #if USE_GPS
 335:firmwares/rotorcraft/main.c ****   GpsEvent(on_gps_event);
 336:firmwares/rotorcraft/main.c **** #endif
 337:firmwares/rotorcraft/main.c **** 
 338:firmwares/rotorcraft/main.c **** #if FAILSAFE_GROUND_DETECT || KILL_ON_GROUND_DETECT
 339:firmwares/rotorcraft/main.c ****   DetectGroundEvent();
 340:firmwares/rotorcraft/main.c **** #endif
 341:firmwares/rotorcraft/main.c **** 
 342:firmwares/rotorcraft/main.c ****   modules_event_task();
 343:firmwares/rotorcraft/main.c **** 
 344:firmwares/rotorcraft/main.c **** }
 345:firmwares/rotorcraft/main.c **** 
 346:firmwares/rotorcraft/main.c **** static inline void on_accel_event(void)
 347:firmwares/rotorcraft/main.c **** {
 348:firmwares/rotorcraft/main.c **** #if USE_AUTO_AHRS_FREQ || !defined(AHRS_CORRECT_FREQUENCY)
 349:firmwares/rotorcraft/main.c ****   PRINT_CONFIG_MSG("Calculating dt for AHRS accel update.")
 350:firmwares/rotorcraft/main.c ****   // timestamp in usec when last callback was received
 351:firmwares/rotorcraft/main.c ****   static uint32_t last_ts = 0;
 352:firmwares/rotorcraft/main.c ****   // current timestamp
 353:firmwares/rotorcraft/main.c ****   uint32_t now_ts = get_sys_time_usec();
 354:firmwares/rotorcraft/main.c ****   // dt between this and last callback
 355:firmwares/rotorcraft/main.c ****   float dt = (float)(now_ts - last_ts) / 1e6;
 356:firmwares/rotorcraft/main.c ****   last_ts = now_ts;
 357:firmwares/rotorcraft/main.c **** #else
 358:firmwares/rotorcraft/main.c ****   PRINT_CONFIG_MSG("Using fixed AHRS_CORRECT_FREQUENCY for AHRS accel update.")
 359:firmwares/rotorcraft/main.c ****   PRINT_CONFIG_VAR(AHRS_CORRECT_FREQUENCY)
 360:firmwares/rotorcraft/main.c ****   const float dt = 1. / (AHRS_CORRECT_FREQUENCY);
 361:firmwares/rotorcraft/main.c **** #endif
 362:firmwares/rotorcraft/main.c **** 
 363:firmwares/rotorcraft/main.c ****   imu_scale_accel(&imu);
 364:firmwares/rotorcraft/main.c **** 
 365:firmwares/rotorcraft/main.c ****   if (ahrs.status != AHRS_UNINIT) {
 366:firmwares/rotorcraft/main.c ****     ahrs_update_accel(dt);
 367:firmwares/rotorcraft/main.c ****   }
 368:firmwares/rotorcraft/main.c **** }
 369:firmwares/rotorcraft/main.c **** 
 370:firmwares/rotorcraft/main.c **** static inline void on_gyro_event(void)
 371:firmwares/rotorcraft/main.c **** {
 372:firmwares/rotorcraft/main.c **** #if USE_AUTO_AHRS_FREQ || !defined(AHRS_PROPAGATE_FREQUENCY)
 373:firmwares/rotorcraft/main.c ****   PRINT_CONFIG_MSG("Calculating dt for AHRS/INS propagation.")
 374:firmwares/rotorcraft/main.c ****   // timestamp in usec when last callback was received
 375:firmwares/rotorcraft/main.c ****   static uint32_t last_ts = 0;
 376:firmwares/rotorcraft/main.c ****   // current timestamp
 377:firmwares/rotorcraft/main.c ****   uint32_t now_ts = get_sys_time_usec();
 3410              		.loc 3 377 0
 3411 1496 FFF7FEFF 		bl	get_sys_time_usec
 3412              	.LVL318:
 378:firmwares/rotorcraft/main.c ****   // dt between this and last callback in seconds
 379:firmwares/rotorcraft/main.c ****   float dt = (float)(now_ts - last_ts) / 1e6;
 3413              		.loc 3 379 0
 3414 149a 6A4B     		ldr	r3, .L790+24
 377:firmwares/rotorcraft/main.c ****   // dt between this and last callback in seconds
 3415              		.loc 3 377 0
 3416 149c 0746     		mov	r7, r0
 3417              	.LVL319:
 3418              		.loc 3 379 0
 3419 149e D3F800A0 		ldr	r10, [r3]
 3420              	.LVL320:
 380:firmwares/rotorcraft/main.c ****   last_ts = now_ts;
 3421              		.loc 3 380 0
 3422 14a2 1860     		str	r0, [r3]
 381:firmwares/rotorcraft/main.c **** #else
 382:firmwares/rotorcraft/main.c ****   PRINT_CONFIG_MSG("Using fixed AHRS_PROPAGATE_FREQUENCY for AHRS/INS propagation.")
 383:firmwares/rotorcraft/main.c ****   PRINT_CONFIG_VAR(AHRS_PROPAGATE_FREQUENCY)
 384:firmwares/rotorcraft/main.c ****   const float dt = 1. / (AHRS_PROPAGATE_FREQUENCY);
 385:firmwares/rotorcraft/main.c **** #endif
 386:firmwares/rotorcraft/main.c **** 
 387:firmwares/rotorcraft/main.c ****   imu_scale_gyro(&imu);
 3423              		.loc 3 387 0
 3424 14a4 6848     		ldr	r0, .L790+28
 3425              	.LVL321:
 3426 14a6 FFF7FEFF 		bl	imu_scale_gyro
 3427              	.LVL322:
 388:firmwares/rotorcraft/main.c **** 
 389:firmwares/rotorcraft/main.c ****   if (ahrs.status == AHRS_UNINIT) {
 3428              		.loc 3 389 0
 3429 14aa 684B     		ldr	r3, .L790+32
 3430 14ac 1B78     		ldrb	r3, [r3]	@ zero_extendqisi2
 3431 14ae 4BB9     		cbnz	r3, .L325
 3432              	.LBB185:
 3433              	.LBB186:
 390:firmwares/rotorcraft/main.c ****     ahrs_aligner_run();
 3434              		.loc 3 390 0
 3435 14b0 FFF7FEFF 		bl	ahrs_aligner_run
 3436              	.LVL323:
 391:firmwares/rotorcraft/main.c ****     if (ahrs_aligner.status == AHRS_ALIGNER_LOCKED) {
 3437              		.loc 3 391 0
 3438 14b4 664B     		ldr	r3, .L790+36
 3439 14b6 93F82C30 		ldrb	r3, [r3, #44]	@ zero_extendqisi2
 3440 14ba 022B     		cmp	r3, #2
 3441 14bc 14D1     		bne	.L324
 392:firmwares/rotorcraft/main.c ****       ahrs_align();
 3442              		.loc 3 392 0
 3443 14be FFF7FEFF 		bl	ahrs_align
 3444              	.LVL324:
 3445 14c2 11E0     		b	.L324
 3446              	.L325:
 3447              	.LBE186:
 3448              	.LBE185:
 379:firmwares/rotorcraft/main.c ****   last_ts = now_ts;
 3449              		.loc 3 379 0
 3450 14c4 CAEB0703 		rsb	r3, r10, r7
 3451 14c8 08EE103A 		fmsr	s16, r3	@ int
 3452 14cc DFED617A 		flds	s15, .L790+40
 3453 14d0 B8EE488A 		fuitos	s16, s16
 3454 14d4 88EE278A 		fdivs	s16, s16, s15
 393:firmwares/rotorcraft/main.c ****     }
 394:firmwares/rotorcraft/main.c ****   } else {
 395:firmwares/rotorcraft/main.c ****     ahrs_propagate(dt);
 3455              		.loc 3 395 0
 3456 14d8 18EE100A 		fmrs	r0, s16
 3457 14dc FFF7FEFF 		bl	ahrs_propagate
 3458              	.LVL325:
 396:firmwares/rotorcraft/main.c **** #ifdef SITL
 397:firmwares/rotorcraft/main.c ****     if (nps_bypass_ahrs) { sim_overwrite_ahrs(); }
 398:firmwares/rotorcraft/main.c **** #endif
 399:firmwares/rotorcraft/main.c ****     ins_propagate(dt);
 3459              		.loc 3 399 0
 3460 14e0 18EE100A 		fmrs	r0, s16
 3461 14e4 FFF7FEFF 		bl	ins_propagate
 3462              	.LVL326:
 3463              	.L324:
 3464              	.LBE184:
 3465              	.LBE183:
  60:./subsystems/imu/imu_aspirin_2_spi.h ****     _gyro_handler();
  61:./subsystems/imu/imu_aspirin_2_spi.h ****   }
  62:./subsystems/imu/imu_aspirin_2_spi.h ****   if (imu_aspirin2.accel_valid) {
 3466              		.loc 9 62 0
 3467 14e8 6378     		ldrb	r3, [r4, #1]	@ zero_extendqisi2
 3468 14ea EBB1     		cbz	r3, .L328
  63:./subsystems/imu/imu_aspirin_2_spi.h ****     imu_aspirin2.accel_valid = FALSE;
 3469              		.loc 9 63 0
 3470 14ec 544B     		ldr	r3, .L790+20
 3471 14ee 0022     		movs	r2, #0
 3472 14f0 5A70     		strb	r2, [r3, #1]
 3473              	.LBB187:
 3474              	.LBB188:
 353:firmwares/rotorcraft/main.c ****   // dt between this and last callback
 3475              		.loc 3 353 0
 3476 14f2 FFF7FEFF 		bl	get_sys_time_usec
 3477              	.LVL327:
 355:firmwares/rotorcraft/main.c ****   last_ts = now_ts;
 3478              		.loc 3 355 0
 3479 14f6 584B     		ldr	r3, .L790+44
 353:firmwares/rotorcraft/main.c ****   // dt between this and last callback
 3480              		.loc 3 353 0
 3481 14f8 0746     		mov	r7, r0
 3482              	.LVL328:
 355:firmwares/rotorcraft/main.c ****   last_ts = now_ts;
 3483              		.loc 3 355 0
 3484 14fa D3F800A0 		ldr	r10, [r3]
 3485              	.LVL329:
 356:firmwares/rotorcraft/main.c **** #else
 3486              		.loc 3 356 0
 3487 14fe 1860     		str	r0, [r3]
 363:firmwares/rotorcraft/main.c **** 
 3488              		.loc 3 363 0
 3489 1500 5148     		ldr	r0, .L790+28
 3490              	.LVL330:
 3491 1502 FFF7FEFF 		bl	imu_scale_accel
 3492              	.LVL331:
 365:firmwares/rotorcraft/main.c ****     ahrs_update_accel(dt);
 3493              		.loc 3 365 0
 3494 1506 514B     		ldr	r3, .L790+32
 3495 1508 1B78     		ldrb	r3, [r3]	@ zero_extendqisi2
 3496 150a 6BB1     		cbz	r3, .L328
 355:firmwares/rotorcraft/main.c ****   last_ts = now_ts;
 3497              		.loc 3 355 0
 3498 150c CAEB0703 		rsb	r3, r10, r7
 3499              	.LVL332:
 3500 1510 07EE903A 		fmsr	s15, r3	@ int
 366:firmwares/rotorcraft/main.c ****   }
 3501              		.loc 3 366 0
 3502 1514 9FED4F7A 		flds	s14, .L790+40
 355:firmwares/rotorcraft/main.c ****   last_ts = now_ts;
 3503              		.loc 3 355 0
 3504 1518 F8EE677A 		fuitos	s15, s15
 366:firmwares/rotorcraft/main.c ****   }
 3505              		.loc 3 366 0
 3506 151c C7EE877A 		fdivs	s15, s15, s14
 3507 1520 17EE900A 		fmrs	r0, s15
 3508 1524 FFF7FEFF 		bl	ahrs_update_accel
 3509              	.LVL333:
 3510              	.L328:
 3511              	.LBE188:
 3512              	.LBE187:
  64:./subsystems/imu/imu_aspirin_2_spi.h ****     _accel_handler();
  65:./subsystems/imu/imu_aspirin_2_spi.h ****   }
  66:./subsystems/imu/imu_aspirin_2_spi.h ****   if (imu_aspirin2.mag_valid) {
 3513              		.loc 9 66 0
 3514 1528 A378     		ldrb	r3, [r4, #2]	@ zero_extendqisi2
 3515 152a DBB1     		cbz	r3, .L331
  67:./subsystems/imu/imu_aspirin_2_spi.h ****     imu_aspirin2.mag_valid = FALSE;
 3516              		.loc 9 67 0
 3517 152c 444B     		ldr	r3, .L790+20
 3518              	.LBB189:
 3519              	.LBB190:
 400:firmwares/rotorcraft/main.c ****   }
 401:firmwares/rotorcraft/main.c **** #ifdef USE_VEHICLE_INTERFACE
 402:firmwares/rotorcraft/main.c ****   vi_notify_imu_available();
 403:firmwares/rotorcraft/main.c **** #endif
 404:firmwares/rotorcraft/main.c **** }
 405:firmwares/rotorcraft/main.c **** 
 406:firmwares/rotorcraft/main.c **** static inline void on_gps_event(void)
 407:firmwares/rotorcraft/main.c **** {
 408:firmwares/rotorcraft/main.c ****   ahrs_update_gps();
 409:firmwares/rotorcraft/main.c ****   ins_update_gps();
 410:firmwares/rotorcraft/main.c **** #ifdef USE_VEHICLE_INTERFACE
 411:firmwares/rotorcraft/main.c ****   if (gps.fix == GPS_FIX_3D) {
 412:firmwares/rotorcraft/main.c ****     vi_notify_gps_available();
 413:firmwares/rotorcraft/main.c ****   }
 414:firmwares/rotorcraft/main.c **** #endif
 415:firmwares/rotorcraft/main.c **** }
 416:firmwares/rotorcraft/main.c **** 
 417:firmwares/rotorcraft/main.c **** static inline void on_mag_event(void)
 418:firmwares/rotorcraft/main.c **** {
 419:firmwares/rotorcraft/main.c ****   imu_scale_mag(&imu);
 3520              		.loc 3 419 0
 3521 152e 4648     		ldr	r0, .L790+28
 3522              	.LBE190:
 3523              	.LBE189:
 3524              		.loc 9 67 0
 3525 1530 0022     		movs	r2, #0
 3526 1532 9A70     		strb	r2, [r3, #2]
 3527              	.LBB192:
 3528              	.LBB191:
 3529              		.loc 3 419 0
 3530 1534 FFF7FEFF 		bl	imu_scale_mag
 3531              	.LVL334:
 420:firmwares/rotorcraft/main.c **** 
 421:firmwares/rotorcraft/main.c **** #if USE_MAGNETOMETER
 422:firmwares/rotorcraft/main.c **** #if USE_AUTO_AHRS_FREQ || !defined(AHRS_MAG_CORRECT_FREQUENCY)
 423:firmwares/rotorcraft/main.c ****   PRINT_CONFIG_MSG("Calculating dt for AHRS mag update.")
 424:firmwares/rotorcraft/main.c ****   // timestamp in usec when last callback was received
 425:firmwares/rotorcraft/main.c ****   static uint32_t last_ts = 0;
 426:firmwares/rotorcraft/main.c ****   // current timestamp
 427:firmwares/rotorcraft/main.c ****   uint32_t now_ts = get_sys_time_usec();
 3532              		.loc 3 427 0
 3533 1538 FFF7FEFF 		bl	get_sys_time_usec
 3534              	.LVL335:
 428:firmwares/rotorcraft/main.c ****   // dt between this and last callback in seconds
 429:firmwares/rotorcraft/main.c ****   float dt = (float)(now_ts - last_ts) / 1e6;
 3535              		.loc 3 429 0
 3536 153c 474B     		ldr	r3, .L790+48
 3537 153e 1A68     		ldr	r2, [r3]
 3538              	.LVL336:
 430:firmwares/rotorcraft/main.c ****   last_ts = now_ts;
 3539              		.loc 3 430 0
 3540 1540 1860     		str	r0, [r3]
 431:firmwares/rotorcraft/main.c **** #else
 432:firmwares/rotorcraft/main.c ****   PRINT_CONFIG_MSG("Using fixed AHRS_MAG_CORRECT_FREQUENCY for AHRS mag update.")
 433:firmwares/rotorcraft/main.c ****   PRINT_CONFIG_VAR(AHRS_MAG_CORRECT_FREQUENCY)
 434:firmwares/rotorcraft/main.c ****   const float dt = 1. / (AHRS_MAG_CORRECT_FREQUENCY);
 435:firmwares/rotorcraft/main.c **** #endif
 436:firmwares/rotorcraft/main.c **** 
 437:firmwares/rotorcraft/main.c ****   if (ahrs.status == AHRS_RUNNING) {
 3541              		.loc 3 437 0
 3542 1542 424B     		ldr	r3, .L790+32
 3543 1544 1B78     		ldrb	r3, [r3]	@ zero_extendqisi2
 3544 1546 012B     		cmp	r3, #1
 3545 1548 0CD1     		bne	.L331
 429:firmwares/rotorcraft/main.c ****   last_ts = now_ts;
 3546              		.loc 3 429 0
 3547 154a 801A     		subs	r0, r0, r2
 3548              	.LVL337:
 3549 154c 07EE900A 		fmsr	s15, r0	@ int
 438:firmwares/rotorcraft/main.c ****     ahrs_update_mag(dt);
 3550              		.loc 3 438 0
 3551 1550 9FED407A 		flds	s14, .L790+40
 429:firmwares/rotorcraft/main.c ****   last_ts = now_ts;
 3552              		.loc 3 429 0
 3553 1554 F8EE677A 		fuitos	s15, s15
 3554              		.loc 3 438 0
 3555 1558 C7EE877A 		fdivs	s15, s15, s14
 3556 155c 17EE900A 		fmrs	r0, s15
 3557              	.LVL338:
 3558 1560 FFF7FEFF 		bl	ahrs_update_mag
 3559              	.LVL339:
 3560              	.L331:
 3561              	.LBE191:
 3562              	.LBE192:
 3563              	.LBE182:
 3564              	.LBE181:
 3565              	.LBB193:
 3566              	.LBB194:
  93:./mcu_periph/uart.h ****   if (available < 0) {
 3567              		.loc 7 93 0
 3568 1564 3E4F     		ldr	r7, .L790+52
 3569 1566 3F4C     		ldr	r4, .L790+56
 3570              	.LBE194:
 3571              	.LBE193:
 331:firmwares/rotorcraft/main.c **** #endif
 3572              		.loc 3 331 0
 3573 1568 FFF7FEFF 		bl	baro_event
 3574              	.LVL340:
 3575              	.LBB196:
 3576              	.LBB195:
  93:./mcu_periph/uart.h ****   if (available < 0) {
 3577              		.loc 7 93 0
 3578 156c B7F88220 		ldrh	r2, [r7, #130]
 3579 1570 B7F88030 		ldrh	r3, [r7, #128]
 3580 1574 9B1A     		subs	r3, r3, r2
 3581 1576 9BB2     		uxth	r3, r3
 3582 1578 9AB2     		uxth	r2, r3
 3583              	.LVL341:
  94:./mcu_periph/uart.h ****     available += UART_RX_BUFFER_SIZE;
 3584              		.loc 7 94 0
 3585 157a 1004     		lsls	r0, r2, #16
 3586              		.loc 7 95 0
 3587 157c 44BF     		itt	mi
 3588 157e 8033     		addmi	r3, r3, #128
 3589 1580 9AB2     		uxthmi	r2, r3
 3590              	.LVL342:
 3591              	.LBE195:
 3592              	.LBE196:
 335:firmwares/rotorcraft/main.c **** #endif
 3593              		.loc 3 335 0
 3594 1582 6AB9     		cbnz	r2, .L554
 3595              	.LVL343:
 3596              	.L338:
 3597 1584 2378     		ldrb	r3, [r4]	@ zero_extendqisi2
 3598 1586 DFF8DCA0 		ldr	r10, .L790+56
 3599 158a 002B     		cmp	r3, #0
 3600 158c 3FD0     		beq	.L336
 3601 158e 15E0     		b	.L769
 3602              	.LVL344:
 3603              	.L770:
 3604 1590 2378     		ldrb	r3, [r4]	@ zero_extendqisi2
 3605 1592 002B     		cmp	r3, #0
 3606 1594 F6D1     		bne	.L338
 3607 1596 3248     		ldr	r0, .L790+52
 3608 1598 FFF7FEFF 		bl	uart_getch
 3609              	.LVL345:
 3610 159c FFF7FEFF 		bl	gps_ubx_parse
 3611              	.LVL346:
 3612              	.L554:
 3613              	.LBB197:
 3614              	.LBB198:
  93:./mcu_periph/uart.h ****   if (available < 0) {
 3615              		.loc 7 93 0
 3616 15a0 B7F88220 		ldrh	r2, [r7, #130]
 3617 15a4 B7F88030 		ldrh	r3, [r7, #128]
 3618 15a8 9B1A     		subs	r3, r3, r2
 3619 15aa 9BB2     		uxth	r3, r3
 3620 15ac 9AB2     		uxth	r2, r3
 3621              	.LVL347:
  94:./mcu_periph/uart.h ****     available += UART_RX_BUFFER_SIZE;
 3622              		.loc 7 94 0
 3623 15ae 1104     		lsls	r1, r2, #16
 3624              		.loc 7 95 0
 3625 15b0 44BF     		itt	mi
 3626 15b2 8033     		addmi	r3, r3, #128
 3627 15b4 9AB2     		uxthmi	r2, r3
 3628              	.LVL348:
 3629              	.LBE198:
 3630              	.LBE197:
 335:firmwares/rotorcraft/main.c **** #endif
 3631              		.loc 3 335 0
 3632 15b6 002A     		cmp	r2, #0
 3633 15b8 EAD1     		bne	.L770
 3634 15ba E3E7     		b	.L338
 3635              	.LVL349:
 3636              	.L769:
 3637 15bc 2A4F     		ldr	r7, .L790+60
 3638 15be 6B68     		ldr	r3, [r5, #4]
 3639 15c0 C7F8F030 		str	r3, [r7, #240]
 3640 15c4 2B68     		ldr	r3, [r5]
 3641 15c6 C7F8F430 		str	r3, [r7, #244]
 3642 15ca FFF7FEFF 		bl	gps_ubx_read_message
 3643              	.LVL350:
 3644 15ce FFF7FEFF 		bl	gps_ubx_ucenter_event
 3645              	.LVL351:
 3646 15d2 9AF80831 		ldrb	r3, [r10, #264]	@ zero_extendqisi2
 3647 15d6 012B     		cmp	r3, #1
 3648 15d8 17D1     		bne	.L340
 3649 15da 9AF80731 		ldrb	r3, [r10, #263]	@ zero_extendqisi2
 3650 15de 122B     		cmp	r3, #18
 3651 15e0 04D0     		beq	.L341
 3652 15e2 062B     		cmp	r3, #6
 3653 15e4 11D1     		bne	.L340
 3654 15e6 9AF81531 		ldrb	r3, [r10, #277]	@ zero_extendqisi2
 3655 15ea 73B9     		cbnz	r3, .L340
 3656              	.L341:
 3657 15ec 97F85B20 		ldrb	r2, [r7, #91]	@ zero_extendqisi2
 3658 15f0 1D4B     		ldr	r3, .L790+60
 3659 15f2 032A     		cmp	r2, #3
 3660 15f4 01BF     		itttt	eq
 3661 15f6 6A68     		ldreq	r2, [r5, #4]
 3662 15f8 C3F8E820 		streq	r2, [r3, #232]
 3663 15fc 2A68     		ldreq	r2, [r5]
 3664 15fe C3F8EC20 		streq	r2, [r3, #236]
 3665              	.LBB199:
 3666              	.LBB200:
 408:firmwares/rotorcraft/main.c ****   ins_update_gps();
 3667              		.loc 3 408 0
 3668 1602 FFF7FEFF 		bl	ahrs_update_gps
 3669              	.LVL352:
 409:firmwares/rotorcraft/main.c **** #ifdef USE_VEHICLE_INTERFACE
 3670              		.loc 3 409 0
 3671 1606 FFF7FEFF 		bl	ins_update_gps
 3672              	.LVL353:
 3673              	.L340:
 3674              	.LBE200:
 3675              	.LBE199:
 335:firmwares/rotorcraft/main.c **** #endif
 3676              		.loc 3 335 0
 3677 160a 0023     		movs	r3, #0
 3678 160c 2370     		strb	r3, [r4]
 3679              	.L336:
 3680              	.LBB201:
 3681              	.LBB202:
  73:/home/adamczer/paparazzi/var/aircrafts/Quad_LisaMX/ap/generated/modules.h ****   }
  74:/home/adamczer/paparazzi/var/aircrafts/Quad_LisaMX/ap/generated/modules.h **** }
  75:/home/adamczer/paparazzi/var/aircrafts/Quad_LisaMX/ap/generated/modules.h **** 
  76:/home/adamczer/paparazzi/var/aircrafts/Quad_LisaMX/ap/generated/modules.h **** static inline void modules_event_task(void) {
  77:/home/adamczer/paparazzi/var/aircrafts/Quad_LisaMX/ap/generated/modules.h ****   geo_mag_event();
 3682              		.loc 4 77 0
 3683 160e FFF7FEFF 		bl	geo_mag_event
 3684              	.LVL354:
 3685 1612 FEF75DBD 		b	.L343
 3686              	.LVL355:
 3687              	.L39:
 3688              	.LBE202:
 3689              	.LBE201:
 3690              	.LBE170:
 3691              	.LBE169:
 3692              	.LBB203:
 3693              	.LBB168:
 3694              	.LBB167:
 3695              	.LBB140:
 293:firmwares/rotorcraft/main.c ****   }
 3696              		.loc 3 293 0
 3697 1616 0120     		movs	r0, #1
 3698 1618 FFF7FEFF 		bl	autopilot_set_mode
 3699              	.LVL356:
 3700 161c FEF7ADBE 		b	.L38
 3701              	.L41:
 298:firmwares/rotorcraft/main.c ****   }
 3702              		.loc 3 298 0
 3703 1620 0120     		movs	r0, #1
 3704 1622 FFF7FEFF 		bl	autopilot_set_mode
 3705              	.LVL357:
 3706 1626 FEF7B4BE 		b	.L40
 3707              	.L791:
 3708 162a 00BF     		.align	2
 3709              	.L790:
 3710 162c 00000000 		.word	pprz_tp
 3711 1630 00000000 		.word	dl_buffer
 3712 1634 00000000 		.word	dl_msg_available
 3713 1638 00000000 		.word	autopilot_rc
 3714 163c 00000000 		.word	autopilot_on_rc_frame
 3715 1640 00000000 		.word	imu_aspirin2
 3716 1644 00000000 		.word	.LANCHOR86
 3717 1648 00000000 		.word	imu
 3718 164c 00000000 		.word	ahrs
 3719 1650 00000000 		.word	ahrs_aligner
 3720 1654 00247449 		.word	1232348160
 3721 1658 00000000 		.word	.LANCHOR87
 3722 165c 00000000 		.word	.LANCHOR88
 3723 1660 00000000 		.word	uart3
 3724 1664 00000000 		.word	gps_ubx
 3725 1668 00000000 		.word	gps
 3726              	.LBE140:
 3727              	.LBE167:
 3728              	.LBE168:
 3729              	.LBE203:
 3730              		.cfi_endproc
 3731              	.LFE475:
 3733              		.global	baro_tid
 3734              		.global	telemetry_tid
 3735              		.global	electrical_tid
 3736              		.global	radio_control_tid
 3737              		.global	failsafe_tid
 3738              		.global	modules_tid
 3739              		.global	main_periodic_tid
 3740              		.global	abi_queues
 3741              		.global	gps_ubx_gps_ubx_ucenter_periodic_status
 3742              		.section	.bss.i614.10015,"aw",%nobits
 3743              		.align	1
 3744              		.set	.LANCHOR62,. + 0
 3747              	i614.10015:
 3748 0000 0000     		.space	2
 3749              		.section	.bss.modules_tid,"aw",%nobits
 3750              		.set	.LANCHOR2,. + 0
 3753              	modules_tid:
 3754 0000 00       		.space	1
 3755              		.section	.bss.i256.10004,"aw",%nobits
 3756              		.align	1
 3757              		.set	.LANCHOR51,. + 0
 3760              	i256.10004:
 3761 0000 0000     		.space	2
 3762              		.section	.bss.abi_queues,"aw",%nobits
 3763              		.align	2
 3766              	abi_queues:
 3767 0000 00000000 		.space	16
 3767      00000000 
 3767      00000000 
 3767      00000000 
 3768              		.section	.bss.i51.10034,"aw",%nobits
 3769              		.set	.LANCHOR81,. + 0
 3772              	i51.10034:
 3773 0000 00       		.space	1
 3774              		.section	.bss.prescaler.11633,"aw",%nobits
 3775              		.align	1
 3776              		.set	.LANCHOR8,. + 0
 3779              	prescaler.11633:
 3780 0000 0000     		.space	2
 3781              		.section	.bss.i460.10018,"aw",%nobits
 3782              		.align	1
 3783              		.set	.LANCHOR65,. + 0
 3786              	i460.10018:
 3787 0000 0000     		.space	2
 3788              		.section	.bss.prescaler.11634,"aw",%nobits
 3789              		.align	1
 3790              		.set	.LANCHOR9,. + 0
 3793              	prescaler.11634:
 3794 0000 0000     		.space	2
 3795              		.section	.bss.i1280.9974,"aw",%nobits
 3796              		.align	1
 3797              		.set	.LANCHOR21,. + 0
 3800              	i1280.9974:
 3801 0000 0000     		.space	2
 3802              		.section	.bss.i2611.9979,"aw",%nobits
 3803              		.align	1
 3804              		.set	.LANCHOR26,. + 0
 3807              	i2611.9979:
 3808 0000 0000     		.space	2
 3809              		.section	.bss.i1075.10000,"aw",%nobits
 3810              		.align	1
 3811              		.set	.LANCHOR47,. + 0
 3814              	i1075.10000:
 3815 0000 0000     		.space	2
 3816              		.section	.bss.i25.9981,"aw",%nobits
 3817              		.set	.LANCHOR28,. + 0
 3820              	i25.9981:
 3821 0000 00       		.space	1
 3822              		.section	.bss.i512.9968,"aw",%nobits
 3823              		.align	1
 3824              		.set	.LANCHOR15,. + 0
 3827              	i512.9968:
 3828 0000 0000     		.space	2
 3829              		.section	.bss.i614.10036,"aw",%nobits
 3830              		.align	1
 3831              		.set	.LANCHOR83,. + 0
 3834              	i614.10036:
 3835 0000 0000     		.space	2
 3836              		.section	.bss.i1075.9989,"aw",%nobits
 3837              		.align	1
 3838              		.set	.LANCHOR36,. + 0
 3841              	i1075.9989:
 3842 0000 0000     		.space	2
 3843              		.section	.bss.i51.9986,"aw",%nobits
 3844              		.set	.LANCHOR33,. + 0
 3847              	i51.9986:
 3848 0000 00       		.space	1
 3849              		.section	.bss.i51.9402,"aw",%nobits
 3850              		.set	.LANCHOR10,. + 0
 3853              	i51.9402:
 3854 0000 00       		.space	1
 3855              		.section	.bss.i102.10024,"aw",%nobits
 3856              		.set	.LANCHOR71,. + 0
 3859              	i102.10024:
 3860 0000 00       		.space	1
 3861              		.section	.bss.i819.9972,"aw",%nobits
 3862              		.align	1
 3863              		.set	.LANCHOR19,. + 0
 3866              	i819.9972:
 3867 0000 0000     		.space	2
 3868              		.section	.bss.i512.9404,"aw",%nobits
 3869              		.align	1
 3870              		.set	.LANCHOR12,. + 0
 3873              	i512.9404:
 3874 0000 0000     		.space	2
 3875              		.section	.bss.i256.9983,"aw",%nobits
 3876              		.align	1
 3877              		.set	.LANCHOR30,. + 0
 3880              	i256.9983:
 3881 0000 0000     		.space	2
 3882              		.section	.bss.i614.9970,"aw",%nobits
 3883              		.align	1
 3884              		.set	.LANCHOR17,. + 0
 3887              	i614.9970:
 3888 0000 0000     		.space	2
 3889              		.section	.bss.i40.9995,"aw",%nobits
 3890              		.set	.LANCHOR42,. + 0
 3893              	i40.9995:
 3894 0000 00       		.space	1
 3895              		.section	.bss.i2611.10020,"aw",%nobits
 3896              		.align	1
 3897              		.set	.LANCHOR67,. + 0
 3900              	i2611.10020:
 3901 0000 0000     		.space	2
 3902              		.section	.bss.i256.9987,"aw",%nobits
 3903              		.align	1
 3904              		.set	.LANCHOR34,. + 0
 3907              	i256.9987:
 3908 0000 0000     		.space	2
 3909              		.section	.bss.last_ts.11660,"aw",%nobits
 3910              		.align	2
 3911              		.set	.LANCHOR86,. + 0
 3914              	last_ts.11660:
 3915 0000 00000000 		.space	4
 3916              		.section	.bss.i512.9984,"aw",%nobits
 3917              		.align	1
 3918              		.set	.LANCHOR31,. + 0
 3921              	i512.9984:
 3922 0000 0000     		.space	2
 3923              		.section	.bss.i25.10007,"aw",%nobits
 3924              		.set	.LANCHOR54,. + 0
 3927              	i25.10007:
 3928 0000 00       		.space	1
 3929              		.section	.bss.i1075.10006,"aw",%nobits
 3930              		.align	1
 3931              		.set	.LANCHOR53,. + 0
 3934              	i1075.10006:
 3935 0000 0000     		.space	2
 3936              		.section	.bss.i25.10022,"aw",%nobits
 3937              		.set	.LANCHOR69,. + 0
 3940              	i25.10022:
 3941 0000 00       		.space	1
 3942              		.section	.bss.i256.10017,"aw",%nobits
 3943              		.align	1
 3944              		.set	.LANCHOR64,. + 0
 3947              	i256.10017:
 3948 0000 0000     		.space	2
 3949              		.section	.bss.i256.10013,"aw",%nobits
 3950              		.align	1
 3951              		.set	.LANCHOR60,. + 0
 3954              	i256.10013:
 3955 0000 0000     		.space	2
 3956              		.section	.bss.i460.10010,"aw",%nobits
 3957              		.align	1
 3958              		.set	.LANCHOR57,. + 0
 3961              	i460.10010:
 3962 0000 0000     		.space	2
 3963              		.section	.bss.last_ts.11669,"aw",%nobits
 3964              		.align	2
 3965              		.set	.LANCHOR88,. + 0
 3968              	last_ts.11669:
 3969 0000 00000000 		.space	4
 3970              		.section	.bss.gps_ubx_gps_ubx_ucenter_periodic_status,"aw",%nobits
 3971              		.set	.LANCHOR0,. + 0
 3974              	gps_ubx_gps_ubx_ucenter_periodic_status:
 3975 0000 00       		.space	1
 3976              		.section	.bss.i460.10014,"aw",%nobits
 3977              		.align	1
 3978              		.set	.LANCHOR61,. + 0
 3981              	i460.10014:
 3982 0000 0000     		.space	2
 3983              		.section	.bss.electrical_tid,"aw",%nobits
 3984              		.set	.LANCHOR5,. + 0
 3987              	electrical_tid:
 3988 0000 00       		.space	1
 3989              		.section	.data.boot.11638,"aw",%progbits
 3990              		.set	.LANCHOR13,. + 0
 3993              	boot.11638:
 3994 0000 01       		.byte	1
 3995              		.section	.bss.i128.9997,"aw",%nobits
 3996              		.set	.LANCHOR44,. + 0
 3999              	i128.9997:
 4000 0000 00       		.space	1
 4001              		.section	.bss.i51.10008,"aw",%nobits
 4002              		.set	.LANCHOR55,. + 0
 4005              	i51.10008:
 4006 0000 00       		.space	1
 4007              		.section	.bss.main_periodic_tid,"aw",%nobits
 4008              		.set	.LANCHOR1,. + 0
 4011              	main_periodic_tid:
 4012 0000 00       		.space	1
 4013              		.section	.bss.i614.9993,"aw",%nobits
 4014              		.align	1
 4015              		.set	.LANCHOR40,. + 0
 4018              	i614.9993:
 4019 0000 0000     		.space	2
 4020              		.section	.bss.i614.10019,"aw",%nobits
 4021              		.align	1
 4022              		.set	.LANCHOR66,. + 0
 4025              	i614.10019:
 4026 0000 0000     		.space	2
 4027              		.section	.bss.i1587.9976,"aw",%nobits
 4028              		.align	1
 4029              		.set	.LANCHOR23,. + 0
 4032              	i1587.9976:
 4033 0000 0000     		.space	2
 4034              		.section	.bss.i409.10026,"aw",%nobits
 4035              		.align	1
 4036              		.set	.LANCHOR73,. + 0
 4039              	i409.10026:
 4040 0000 0000     		.space	2
 4041              		.section	.bss.i31.10023,"aw",%nobits
 4042              		.set	.LANCHOR70,. + 0
 4045              	i31.10023:
 4046 0000 00       		.space	1
 4047              		.section	.bss.i15.10021,"aw",%nobits
 4048              		.set	.LANCHOR68,. + 0
 4051              	i15.10021:
 4052 0000 00       		.space	1
 4053              		.section	.bss.radio_control_tid,"aw",%nobits
 4054              		.set	.LANCHOR3,. + 0
 4057              	radio_control_tid:
 4058 0000 00       		.space	1
 4059              		.section	.bss.i563.10035,"aw",%nobits
 4060              		.align	1
 4061              		.set	.LANCHOR82,. + 0
 4064              	i563.10035:
 4065 0000 0000     		.space	2
 4066              		.section	.bss.i2099.9978,"aw",%nobits
 4067              		.align	1
 4068              		.set	.LANCHOR25,. + 0
 4071              	i2099.9978:
 4072 0000 0000     		.space	2
 4073              		.section	.bss.i614.9999,"aw",%nobits
 4074              		.align	1
 4075              		.set	.LANCHOR46,. + 0
 4078              	i614.9999:
 4079 0000 0000     		.space	2
 4080              		.section	.bss.i10.10031,"aw",%nobits
 4081              		.set	.LANCHOR78,. + 0
 4084              	i10.10031:
 4085 0000 00       		.space	1
 4086              		.section	.bss.baro_tid,"aw",%nobits
 4087              		.set	.LANCHOR7,. + 0
 4090              	baro_tid:
 4091 0000 00       		.space	1
 4092              		.section	.bss.telemetry_tid,"aw",%nobits
 4093              		.set	.LANCHOR6,. + 0
 4096              	telemetry_tid:
 4097 0000 00       		.space	1
 4098              		.section	.bss.i614.10011,"aw",%nobits
 4099              		.align	1
 4100              		.set	.LANCHOR58,. + 0
 4103              	i614.10011:
 4104 0000 0000     		.space	2
 4105              		.section	.bss.i460.10027,"aw",%nobits
 4106              		.align	1
 4107              		.set	.LANCHOR74,. + 0
 4110              	i460.10027:
 4111 0000 0000     		.space	2
 4112              		.section	.bss.i1536.9975,"aw",%nobits
 4113              		.align	1
 4114              		.set	.LANCHOR22,. + 0
 4117              	i1536.9975:
 4118 0000 0000     		.space	2
 4119              		.section	.bss.i614.9988,"aw",%nobits
 4120              		.align	1
 4121              		.set	.LANCHOR35,. + 0
 4124              	i614.9988:
 4125 0000 0000     		.space	2
 4126              		.section	.bss.i1075.9973,"aw",%nobits
 4127              		.align	1
 4128              		.set	.LANCHOR20,. + 0
 4131              	i1075.9973:
 4132 0000 0000     		.space	2
 4133              		.section	.bss.i819.10029,"aw",%nobits
 4134              		.align	1
 4135              		.set	.LANCHOR76,. + 0
 4138              	i819.10029:
 4139 0000 0000     		.space	2
 4140              		.section	.bss.i1075.9994,"aw",%nobits
 4141              		.align	1
 4142              		.set	.LANCHOR41,. + 0
 4145              	i1075.9994:
 4146 0000 0000     		.space	2
 4147              		.section	.bss.i51.9991,"aw",%nobits
 4148              		.set	.LANCHOR38,. + 0
 4151              	i51.9991:
 4152 0000 00       		.space	1
 4153              		.section	.bss.i204.10025,"aw",%nobits
 4154              		.set	.LANCHOR72,. + 0
 4157              	i204.10025:
 4158 0000 00       		.space	1
 4159              		.section	.bss.i38.9990,"aw",%nobits
 4160              		.set	.LANCHOR37,. + 0
 4163              	i38.9990:
 4164 0000 00       		.space	1
 4165              		.section	.bss.i51.9996,"aw",%nobits
 4166              		.set	.LANCHOR43,. + 0
 4169              	i51.9996:
 4170 0000 00       		.space	1
 4171              		.section	.bss.i2611.10038,"aw",%nobits
 4172              		.align	1
 4173              		.set	.LANCHOR85,. + 0
 4176              	i2611.10038:
 4177 0000 0000     		.space	2
 4178              		.section	.bss.i1126.10001,"aw",%nobits
 4179              		.align	1
 4180              		.set	.LANCHOR48,. + 0
 4183              	i1126.10001:
 4184 0000 0000     		.space	2
 4185              		.section	.bss.i665.9971,"aw",%nobits
 4186              		.align	1
 4187              		.set	.LANCHOR18,. + 0
 4190              	i665.9971:
 4191 0000 0000     		.space	2
 4192              		.section	.bss.i256.9992,"aw",%nobits
 4193              		.align	1
 4194              		.set	.LANCHOR39,. + 0
 4197              	i256.9992:
 4198 0000 0000     		.space	2
 4199              		.section	.bss.i102.9982,"aw",%nobits
 4200              		.set	.LANCHOR29,. + 0
 4203              	i102.9982:
 4204 0000 00       		.space	1
 4205              		.section	.bss.last_ts.11654,"aw",%nobits
 4206              		.align	2
 4207              		.set	.LANCHOR87,. + 0
 4210              	last_ts.11654:
 4211 0000 00000000 		.space	4
 4212              		.section	.bss.failsafe_tid,"aw",%nobits
 4213              		.set	.LANCHOR4,. + 0
 4216              	failsafe_tid:
 4217 0000 00       		.space	1
 4218              		.section	.bss.i2611.10030,"aw",%nobits
 4219              		.align	1
 4220              		.set	.LANCHOR77,. + 0
 4223              	i2611.10030:
 4224 0000 0000     		.space	2
 4225              		.section	.bss.i256.9998,"aw",%nobits
 4226              		.align	1
 4227              		.set	.LANCHOR45,. + 0
 4230              	i256.9998:
 4231 0000 0000     		.space	2
 4232              		.section	.bss.i128.9967,"aw",%nobits
 4233              		.set	.LANCHOR14,. + 0
 4236              	i128.9967:
 4237 0000 00       		.space	1
 4238              		.section	.bss.i25.10033,"aw",%nobits
 4239              		.set	.LANCHOR80,. + 0
 4242              	i25.10033:
 4243 0000 00       		.space	1
 4244              		.section	.bss.i256.10009,"aw",%nobits
 4245              		.align	1
 4246              		.set	.LANCHOR56,. + 0
 4249              	i256.10009:
 4250 0000 0000     		.space	2
 4251              		.section	.bss.i460.10032,"aw",%nobits
 4252              		.align	1
 4253              		.set	.LANCHOR79,. + 0
 4256              	i460.10032:
 4257 0000 0000     		.space	2
 4258              		.section	.bss.i563.9969,"aw",%nobits
 4259              		.align	1
 4260              		.set	.LANCHOR16,. + 0
 4263              	i563.9969:
 4264 0000 0000     		.space	2
 4265              		.section	.bss.i2560.10002,"aw",%nobits
 4266              		.align	1
 4267              		.set	.LANCHOR49,. + 0
 4270              	i2560.10002:
 4271 0000 0000     		.space	2
 4272              		.section	.bss.i128.9403,"aw",%nobits
 4273              		.set	.LANCHOR11,. + 0
 4276              	i128.9403:
 4277 0000 00       		.space	1
 4278              		.section	.bss.i1075.10037,"aw",%nobits
 4279              		.align	1
 4280              		.set	.LANCHOR84,. + 0
 4283              	i1075.10037:
 4284 0000 0000     		.space	2
 4285              		.section	.bss.i25.10016,"aw",%nobits
 4286              		.set	.LANCHOR63,. + 0
 4289              	i25.10016:
 4290 0000 00       		.space	1
 4291              		.section	.bss.i1638.9977,"aw",%nobits
 4292              		.align	1
 4293              		.set	.LANCHOR24,. + 0
 4296              	i1638.9977:
 4297 0000 0000     		.space	2
 4298              		.section	.bss.i614.10028,"aw",%nobits
 4299              		.align	1
 4300              		.set	.LANCHOR75,. + 0
 4303              	i614.10028:
 4304 0000 0000     		.space	2
 4305              		.section	.bss.i15.10012,"aw",%nobits
 4306              		.set	.LANCHOR59,. + 0
 4309              	i15.10012:
 4310 0000 00       		.space	1
 4311              		.section	.bss.i10.10003,"aw",%nobits
 4312              		.set	.LANCHOR50,. + 0
 4315              	i10.10003:
 4316 0000 00       		.space	1
 4317              		.section	.bss.i614.10005,"aw",%nobits
 4318              		.align	1
 4319              		.set	.LANCHOR52,. + 0
 4322              	i614.10005:
 4323 0000 0000     		.space	2
 4324              		.section	.bss.i5683.9980,"aw",%nobits
 4325              		.align	1
 4326              		.set	.LANCHOR27,. + 0
 4329              	i5683.9980:
 4330 0000 0000     		.space	2
 4331              		.section	.bss.i25.9985,"aw",%nobits
 4332              		.set	.LANCHOR32,. + 0
 4335              	i25.9985:
 4336 0000 00       		.space	1
 4337              		.text
 4338              	.Letext0:
 4339              		.file 10 "/usr/arm-none-eabi/include/machine/_default_types.h"
 4340              		.file 11 "/usr/arm-none-eabi/include/sys/_stdint.h"
 4341              		.file 12 "/home/adamczer/paparazzi/sw/include/std.h"
 4342              		.file 13 "./mcu_periph/link_device.h"
 4343              		.file 14 "./subsystems/datalink/transport.h"
 4344              		.file 15 "./math/pprz_algebra_float.h"
 4345              		.file 16 "./subsystems/datalink/xbee.h"
 4346              		.file 17 "./subsystems/datalink/telemetry_common.h"
 4347              		.file 18 "./paparazzi.h"
 4348              		.file 19 "./subsystems/actuators/motor_mixing.h"
 4349              		.file 20 "./math/pprz_algebra_int.h"
 4350              		.file 21 "./math/pprz_orientation_conversion.h"
 4351              		.file 22 "./subsystems/imu.h"
 4352              		.file 23 "./mcu_periph/spi.h"
 4353              		.file 24 "./peripherals/mpu60x0_regs.h"
 4354              		.file 25 "./peripherals/mpu60x0.h"
 4355              		.file 26 "./peripherals/mpu60x0_spi.h"
 4356              		.file 27 "./math/pprz_geodetic_int.h"
 4357              		.file 28 "./subsystems/gps/gps_ubx.h"
 4358              		.file 29 "./math/pprz_geodetic_float.h"
 4359              		.file 30 "./state.h"
 4360              		.file 31 "./subsystems/radio_control.h"
 4361              		.file 32 "./subsystems/ahrs.h"
 4362              		.file 33 "./subsystems/ahrs/ahrs_aligner.h"
 4363              		.file 34 "./subsystems/abi_common.h"
 4364              		.file 35 "/home/adamczer/paparazzi/sw/airborne/arch/stm32/subsystems/actuators/actuators_pwm_arch.
 4365              		.file 36 "./subsystems/datalink/datalink.h"
 4366              		.file 37 "./subsystems/datalink/w5100.h"
 4367              		.file 38 "./subsystems/settings.h"
 4368              		.file 39 "./subsystems/commands.h"
 4369              		.file 40 "./subsystems/actuators.h"
 4370              		.file 41 "./firmwares/rotorcraft/autopilot.h"
 4371              		.file 42 "/home/adamczer/paparazzi/var/include/abi_messages.h"
 4372              		.file 43 "../ext/libopencm3/include/libopencm3/cm3/systick.h"
 4373              		.file 44 "modules/adcs/adc_generic.h"
 4374              		.file 45 "modules/gps/gps_ubx_ucenter.h"
 4375              		.file 46 "modules/geo_mag/geo_mag.h"
 4376              		.file 47 "modules/air_data/air_data.h"
 4377              		.file 48 "./mcu.h"
 4378              		.file 49 "./subsystems/electrical.h"
 4379              		.file 50 "./subsystems/sensors/baro.h"
 4380              		.file 51 "./subsystems/ins.h"
 4381              		.file 52 "./subsystems/datalink/downlink.h"
 4382              		.file 53 "./mcu_periph/i2c.h"
 4383              		.file 54 "/home/adamczer/paparazzi/sw/airborne/arch/stm32/subsystems/radio_control/spektrum_arch.h
 4384              		.file 55 "boards/lisa_mx/baro_board.h"
 4385              		.file 56 "../ext/libopencm3/include/libopencm3/stm32/f4/rcc.h"
DEFINED SYMBOLS
                            *ABS*:0000000000000000 main.c
     /tmp/ccD7oQJg.s:20     .text.get_sys_time_usec:0000000000000000 $t
     /tmp/ccD7oQJg.s:24     .text.get_sys_time_usec:0000000000000000 get_sys_time_usec
     /tmp/ccD7oQJg.s:97     .text.get_sys_time_usec:0000000000000038 $d
     /tmp/ccD7oQJg.s:103    .text.startup.main:0000000000000000 $t
     /tmp/ccD7oQJg.s:108    .text.startup.main:0000000000000000 main
     /tmp/ccD7oQJg.s:564    .text.startup.main:0000000000000294 $d
     /tmp/ccD7oQJg.s:592    .text.startup.main:00000000000002fc $t
     /tmp/ccD7oQJg.s:948    .text.startup.main:0000000000000530 $d
     /tmp/ccD7oQJg.s:973    .text.startup.main:000000000000058c $t
     /tmp/ccD7oQJg.s:1322   .text.startup.main:000000000000078c $d
     /tmp/ccD7oQJg.s:1342   .text.startup.main:00000000000007d4 $t
     /tmp/ccD7oQJg.s:1693   .text.startup.main:00000000000009e4 $d
     /tmp/ccD7oQJg.s:1708   .text.startup.main:0000000000000a18 $t
     /tmp/ccD7oQJg.s:1896   .text.startup.main:0000000000000b40 $d
     /tmp/ccD7oQJg.s:1909   .text.startup.main:0000000000000b6c $t
     /tmp/ccD7oQJg.s:2308   .text.startup.main:0000000000000dd0 $d
     /tmp/ccD7oQJg.s:2329   .text.startup.main:0000000000000e18 $t
     /tmp/ccD7oQJg.s:2547   .text.startup.main:0000000000000f64 $d
     /tmp/ccD7oQJg.s:2557   .text.startup.main:0000000000000f84 $t
     /tmp/ccD7oQJg.s:2813   .text.startup.main:0000000000001110 $d
     /tmp/ccD7oQJg.s:2828   .text.startup.main:0000000000001144 $t
     /tmp/ccD7oQJg.s:3211   .text.startup.main:0000000000001362 $d
     /tmp/ccD7oQJg.s:3253   .text.startup.main:00000000000013a4 $d
     /tmp/ccD7oQJg.s:3269   .text.startup.main:00000000000013dc $t
     /tmp/ccD7oQJg.s:3710   .text.startup.main:000000000000162c $d
     /tmp/ccD7oQJg.s:4090   .bss.baro_tid:0000000000000000 baro_tid
     /tmp/ccD7oQJg.s:4096   .bss.telemetry_tid:0000000000000000 telemetry_tid
     /tmp/ccD7oQJg.s:3987   .bss.electrical_tid:0000000000000000 electrical_tid
     /tmp/ccD7oQJg.s:4057   .bss.radio_control_tid:0000000000000000 radio_control_tid
     /tmp/ccD7oQJg.s:4216   .bss.failsafe_tid:0000000000000000 failsafe_tid
     /tmp/ccD7oQJg.s:3753   .bss.modules_tid:0000000000000000 modules_tid
     /tmp/ccD7oQJg.s:4011   .bss.main_periodic_tid:0000000000000000 main_periodic_tid
     /tmp/ccD7oQJg.s:3766   .bss.abi_queues:0000000000000000 abi_queues
     /tmp/ccD7oQJg.s:3974   .bss.gps_ubx_gps_ubx_ucenter_periodic_status:0000000000000000 gps_ubx_gps_ubx_ucenter_periodic_status
     /tmp/ccD7oQJg.s:3743   .bss.i614.10015:0000000000000000 $d
     /tmp/ccD7oQJg.s:3747   .bss.i614.10015:0000000000000000 i614.10015
     /tmp/ccD7oQJg.s:3754   .bss.modules_tid:0000000000000000 $d
     /tmp/ccD7oQJg.s:3756   .bss.i256.10004:0000000000000000 $d
     /tmp/ccD7oQJg.s:3760   .bss.i256.10004:0000000000000000 i256.10004
     /tmp/ccD7oQJg.s:3763   .bss.abi_queues:0000000000000000 $d
     /tmp/ccD7oQJg.s:3772   .bss.i51.10034:0000000000000000 i51.10034
     /tmp/ccD7oQJg.s:3773   .bss.i51.10034:0000000000000000 $d
     /tmp/ccD7oQJg.s:3775   .bss.prescaler.11633:0000000000000000 $d
     /tmp/ccD7oQJg.s:3779   .bss.prescaler.11633:0000000000000000 prescaler.11633
     /tmp/ccD7oQJg.s:3782   .bss.i460.10018:0000000000000000 $d
     /tmp/ccD7oQJg.s:3786   .bss.i460.10018:0000000000000000 i460.10018
     /tmp/ccD7oQJg.s:3789   .bss.prescaler.11634:0000000000000000 $d
     /tmp/ccD7oQJg.s:3793   .bss.prescaler.11634:0000000000000000 prescaler.11634
     /tmp/ccD7oQJg.s:3796   .bss.i1280.9974:0000000000000000 $d
     /tmp/ccD7oQJg.s:3800   .bss.i1280.9974:0000000000000000 i1280.9974
     /tmp/ccD7oQJg.s:3803   .bss.i2611.9979:0000000000000000 $d
     /tmp/ccD7oQJg.s:3807   .bss.i2611.9979:0000000000000000 i2611.9979
     /tmp/ccD7oQJg.s:3810   .bss.i1075.10000:0000000000000000 $d
     /tmp/ccD7oQJg.s:3814   .bss.i1075.10000:0000000000000000 i1075.10000
     /tmp/ccD7oQJg.s:3820   .bss.i25.9981:0000000000000000 i25.9981
     /tmp/ccD7oQJg.s:3821   .bss.i25.9981:0000000000000000 $d
     /tmp/ccD7oQJg.s:3823   .bss.i512.9968:0000000000000000 $d
     /tmp/ccD7oQJg.s:3827   .bss.i512.9968:0000000000000000 i512.9968
     /tmp/ccD7oQJg.s:3830   .bss.i614.10036:0000000000000000 $d
     /tmp/ccD7oQJg.s:3834   .bss.i614.10036:0000000000000000 i614.10036
     /tmp/ccD7oQJg.s:3837   .bss.i1075.9989:0000000000000000 $d
     /tmp/ccD7oQJg.s:3841   .bss.i1075.9989:0000000000000000 i1075.9989
     /tmp/ccD7oQJg.s:3847   .bss.i51.9986:0000000000000000 i51.9986
     /tmp/ccD7oQJg.s:3848   .bss.i51.9986:0000000000000000 $d
     /tmp/ccD7oQJg.s:3853   .bss.i51.9402:0000000000000000 i51.9402
     /tmp/ccD7oQJg.s:3854   .bss.i51.9402:0000000000000000 $d
     /tmp/ccD7oQJg.s:3859   .bss.i102.10024:0000000000000000 i102.10024
     /tmp/ccD7oQJg.s:3860   .bss.i102.10024:0000000000000000 $d
     /tmp/ccD7oQJg.s:3862   .bss.i819.9972:0000000000000000 $d
     /tmp/ccD7oQJg.s:3866   .bss.i819.9972:0000000000000000 i819.9972
     /tmp/ccD7oQJg.s:3869   .bss.i512.9404:0000000000000000 $d
     /tmp/ccD7oQJg.s:3873   .bss.i512.9404:0000000000000000 i512.9404
     /tmp/ccD7oQJg.s:3876   .bss.i256.9983:0000000000000000 $d
     /tmp/ccD7oQJg.s:3880   .bss.i256.9983:0000000000000000 i256.9983
     /tmp/ccD7oQJg.s:3883   .bss.i614.9970:0000000000000000 $d
     /tmp/ccD7oQJg.s:3887   .bss.i614.9970:0000000000000000 i614.9970
     /tmp/ccD7oQJg.s:3893   .bss.i40.9995:0000000000000000 i40.9995
     /tmp/ccD7oQJg.s:3894   .bss.i40.9995:0000000000000000 $d
     /tmp/ccD7oQJg.s:3896   .bss.i2611.10020:0000000000000000 $d
     /tmp/ccD7oQJg.s:3900   .bss.i2611.10020:0000000000000000 i2611.10020
     /tmp/ccD7oQJg.s:3903   .bss.i256.9987:0000000000000000 $d
     /tmp/ccD7oQJg.s:3907   .bss.i256.9987:0000000000000000 i256.9987
     /tmp/ccD7oQJg.s:3910   .bss.last_ts.11660:0000000000000000 $d
     /tmp/ccD7oQJg.s:3914   .bss.last_ts.11660:0000000000000000 last_ts.11660
     /tmp/ccD7oQJg.s:3917   .bss.i512.9984:0000000000000000 $d
     /tmp/ccD7oQJg.s:3921   .bss.i512.9984:0000000000000000 i512.9984
     /tmp/ccD7oQJg.s:3927   .bss.i25.10007:0000000000000000 i25.10007
     /tmp/ccD7oQJg.s:3928   .bss.i25.10007:0000000000000000 $d
     /tmp/ccD7oQJg.s:3930   .bss.i1075.10006:0000000000000000 $d
     /tmp/ccD7oQJg.s:3934   .bss.i1075.10006:0000000000000000 i1075.10006
     /tmp/ccD7oQJg.s:3940   .bss.i25.10022:0000000000000000 i25.10022
     /tmp/ccD7oQJg.s:3941   .bss.i25.10022:0000000000000000 $d
     /tmp/ccD7oQJg.s:3943   .bss.i256.10017:0000000000000000 $d
     /tmp/ccD7oQJg.s:3947   .bss.i256.10017:0000000000000000 i256.10017
     /tmp/ccD7oQJg.s:3950   .bss.i256.10013:0000000000000000 $d
     /tmp/ccD7oQJg.s:3954   .bss.i256.10013:0000000000000000 i256.10013
     /tmp/ccD7oQJg.s:3957   .bss.i460.10010:0000000000000000 $d
     /tmp/ccD7oQJg.s:3961   .bss.i460.10010:0000000000000000 i460.10010
     /tmp/ccD7oQJg.s:3964   .bss.last_ts.11669:0000000000000000 $d
     /tmp/ccD7oQJg.s:3968   .bss.last_ts.11669:0000000000000000 last_ts.11669
     /tmp/ccD7oQJg.s:3975   .bss.gps_ubx_gps_ubx_ucenter_periodic_status:0000000000000000 $d
     /tmp/ccD7oQJg.s:3977   .bss.i460.10014:0000000000000000 $d
     /tmp/ccD7oQJg.s:3981   .bss.i460.10014:0000000000000000 i460.10014
     /tmp/ccD7oQJg.s:3988   .bss.electrical_tid:0000000000000000 $d
     /tmp/ccD7oQJg.s:3993   .data.boot.11638:0000000000000000 boot.11638
     /tmp/ccD7oQJg.s:3999   .bss.i128.9997:0000000000000000 i128.9997
     /tmp/ccD7oQJg.s:4000   .bss.i128.9997:0000000000000000 $d
     /tmp/ccD7oQJg.s:4005   .bss.i51.10008:0000000000000000 i51.10008
     /tmp/ccD7oQJg.s:4006   .bss.i51.10008:0000000000000000 $d
     /tmp/ccD7oQJg.s:4012   .bss.main_periodic_tid:0000000000000000 $d
     /tmp/ccD7oQJg.s:4014   .bss.i614.9993:0000000000000000 $d
     /tmp/ccD7oQJg.s:4018   .bss.i614.9993:0000000000000000 i614.9993
     /tmp/ccD7oQJg.s:4021   .bss.i614.10019:0000000000000000 $d
     /tmp/ccD7oQJg.s:4025   .bss.i614.10019:0000000000000000 i614.10019
     /tmp/ccD7oQJg.s:4028   .bss.i1587.9976:0000000000000000 $d
     /tmp/ccD7oQJg.s:4032   .bss.i1587.9976:0000000000000000 i1587.9976
     /tmp/ccD7oQJg.s:4035   .bss.i409.10026:0000000000000000 $d
     /tmp/ccD7oQJg.s:4039   .bss.i409.10026:0000000000000000 i409.10026
     /tmp/ccD7oQJg.s:4045   .bss.i31.10023:0000000000000000 i31.10023
     /tmp/ccD7oQJg.s:4046   .bss.i31.10023:0000000000000000 $d
     /tmp/ccD7oQJg.s:4051   .bss.i15.10021:0000000000000000 i15.10021
     /tmp/ccD7oQJg.s:4052   .bss.i15.10021:0000000000000000 $d
     /tmp/ccD7oQJg.s:4058   .bss.radio_control_tid:0000000000000000 $d
     /tmp/ccD7oQJg.s:4060   .bss.i563.10035:0000000000000000 $d
     /tmp/ccD7oQJg.s:4064   .bss.i563.10035:0000000000000000 i563.10035
     /tmp/ccD7oQJg.s:4067   .bss.i2099.9978:0000000000000000 $d
     /tmp/ccD7oQJg.s:4071   .bss.i2099.9978:0000000000000000 i2099.9978
     /tmp/ccD7oQJg.s:4074   .bss.i614.9999:0000000000000000 $d
     /tmp/ccD7oQJg.s:4078   .bss.i614.9999:0000000000000000 i614.9999
     /tmp/ccD7oQJg.s:4084   .bss.i10.10031:0000000000000000 i10.10031
     /tmp/ccD7oQJg.s:4085   .bss.i10.10031:0000000000000000 $d
     /tmp/ccD7oQJg.s:4091   .bss.baro_tid:0000000000000000 $d
     /tmp/ccD7oQJg.s:4097   .bss.telemetry_tid:0000000000000000 $d
     /tmp/ccD7oQJg.s:4099   .bss.i614.10011:0000000000000000 $d
     /tmp/ccD7oQJg.s:4103   .bss.i614.10011:0000000000000000 i614.10011
     /tmp/ccD7oQJg.s:4106   .bss.i460.10027:0000000000000000 $d
     /tmp/ccD7oQJg.s:4110   .bss.i460.10027:0000000000000000 i460.10027
     /tmp/ccD7oQJg.s:4113   .bss.i1536.9975:0000000000000000 $d
     /tmp/ccD7oQJg.s:4117   .bss.i1536.9975:0000000000000000 i1536.9975
     /tmp/ccD7oQJg.s:4120   .bss.i614.9988:0000000000000000 $d
     /tmp/ccD7oQJg.s:4124   .bss.i614.9988:0000000000000000 i614.9988
     /tmp/ccD7oQJg.s:4127   .bss.i1075.9973:0000000000000000 $d
     /tmp/ccD7oQJg.s:4131   .bss.i1075.9973:0000000000000000 i1075.9973
     /tmp/ccD7oQJg.s:4134   .bss.i819.10029:0000000000000000 $d
     /tmp/ccD7oQJg.s:4138   .bss.i819.10029:0000000000000000 i819.10029
     /tmp/ccD7oQJg.s:4141   .bss.i1075.9994:0000000000000000 $d
     /tmp/ccD7oQJg.s:4145   .bss.i1075.9994:0000000000000000 i1075.9994
     /tmp/ccD7oQJg.s:4151   .bss.i51.9991:0000000000000000 i51.9991
     /tmp/ccD7oQJg.s:4152   .bss.i51.9991:0000000000000000 $d
     /tmp/ccD7oQJg.s:4157   .bss.i204.10025:0000000000000000 i204.10025
     /tmp/ccD7oQJg.s:4158   .bss.i204.10025:0000000000000000 $d
     /tmp/ccD7oQJg.s:4163   .bss.i38.9990:0000000000000000 i38.9990
     /tmp/ccD7oQJg.s:4164   .bss.i38.9990:0000000000000000 $d
     /tmp/ccD7oQJg.s:4169   .bss.i51.9996:0000000000000000 i51.9996
     /tmp/ccD7oQJg.s:4170   .bss.i51.9996:0000000000000000 $d
     /tmp/ccD7oQJg.s:4172   .bss.i2611.10038:0000000000000000 $d
     /tmp/ccD7oQJg.s:4176   .bss.i2611.10038:0000000000000000 i2611.10038
     /tmp/ccD7oQJg.s:4179   .bss.i1126.10001:0000000000000000 $d
     /tmp/ccD7oQJg.s:4183   .bss.i1126.10001:0000000000000000 i1126.10001
     /tmp/ccD7oQJg.s:4186   .bss.i665.9971:0000000000000000 $d
     /tmp/ccD7oQJg.s:4190   .bss.i665.9971:0000000000000000 i665.9971
     /tmp/ccD7oQJg.s:4193   .bss.i256.9992:0000000000000000 $d
     /tmp/ccD7oQJg.s:4197   .bss.i256.9992:0000000000000000 i256.9992
     /tmp/ccD7oQJg.s:4203   .bss.i102.9982:0000000000000000 i102.9982
     /tmp/ccD7oQJg.s:4204   .bss.i102.9982:0000000000000000 $d
     /tmp/ccD7oQJg.s:4206   .bss.last_ts.11654:0000000000000000 $d
     /tmp/ccD7oQJg.s:4210   .bss.last_ts.11654:0000000000000000 last_ts.11654
     /tmp/ccD7oQJg.s:4217   .bss.failsafe_tid:0000000000000000 $d
     /tmp/ccD7oQJg.s:4219   .bss.i2611.10030:0000000000000000 $d
     /tmp/ccD7oQJg.s:4223   .bss.i2611.10030:0000000000000000 i2611.10030
     /tmp/ccD7oQJg.s:4226   .bss.i256.9998:0000000000000000 $d
     /tmp/ccD7oQJg.s:4230   .bss.i256.9998:0000000000000000 i256.9998
     /tmp/ccD7oQJg.s:4236   .bss.i128.9967:0000000000000000 i128.9967
     /tmp/ccD7oQJg.s:4237   .bss.i128.9967:0000000000000000 $d
     /tmp/ccD7oQJg.s:4242   .bss.i25.10033:0000000000000000 i25.10033
     /tmp/ccD7oQJg.s:4243   .bss.i25.10033:0000000000000000 $d
     /tmp/ccD7oQJg.s:4245   .bss.i256.10009:0000000000000000 $d
     /tmp/ccD7oQJg.s:4249   .bss.i256.10009:0000000000000000 i256.10009
     /tmp/ccD7oQJg.s:4252   .bss.i460.10032:0000000000000000 $d
     /tmp/ccD7oQJg.s:4256   .bss.i460.10032:0000000000000000 i460.10032
     /tmp/ccD7oQJg.s:4259   .bss.i563.9969:0000000000000000 $d
     /tmp/ccD7oQJg.s:4263   .bss.i563.9969:0000000000000000 i563.9969
     /tmp/ccD7oQJg.s:4266   .bss.i2560.10002:0000000000000000 $d
     /tmp/ccD7oQJg.s:4270   .bss.i2560.10002:0000000000000000 i2560.10002
     /tmp/ccD7oQJg.s:4276   .bss.i128.9403:0000000000000000 i128.9403
     /tmp/ccD7oQJg.s:4277   .bss.i128.9403:0000000000000000 $d
     /tmp/ccD7oQJg.s:4279   .bss.i1075.10037:0000000000000000 $d
     /tmp/ccD7oQJg.s:4283   .bss.i1075.10037:0000000000000000 i1075.10037
     /tmp/ccD7oQJg.s:4289   .bss.i25.10016:0000000000000000 i25.10016
     /tmp/ccD7oQJg.s:4290   .bss.i25.10016:0000000000000000 $d
     /tmp/ccD7oQJg.s:4292   .bss.i1638.9977:0000000000000000 $d
     /tmp/ccD7oQJg.s:4296   .bss.i1638.9977:0000000000000000 i1638.9977
     /tmp/ccD7oQJg.s:4299   .bss.i614.10028:0000000000000000 $d
     /tmp/ccD7oQJg.s:4303   .bss.i614.10028:0000000000000000 i614.10028
     /tmp/ccD7oQJg.s:4309   .bss.i15.10012:0000000000000000 i15.10012
     /tmp/ccD7oQJg.s:4310   .bss.i15.10012:0000000000000000 $d
     /tmp/ccD7oQJg.s:4315   .bss.i10.10003:0000000000000000 i10.10003
     /tmp/ccD7oQJg.s:4316   .bss.i10.10003:0000000000000000 $d
     /tmp/ccD7oQJg.s:4318   .bss.i614.10005:0000000000000000 $d
     /tmp/ccD7oQJg.s:4322   .bss.i614.10005:0000000000000000 i614.10005
     /tmp/ccD7oQJg.s:4325   .bss.i5683.9980:0000000000000000 $d
     /tmp/ccD7oQJg.s:4329   .bss.i5683.9980:0000000000000000 i5683.9980
     /tmp/ccD7oQJg.s:4335   .bss.i25.9985:0000000000000000 i25.9985
     /tmp/ccD7oQJg.s:4336   .bss.i25.9985:0000000000000000 $d
                     .debug_frame:0000000000000010 $d
     /tmp/ccD7oQJg.s:3216   .text.startup.main:0000000000001367 $d
     /tmp/ccD7oQJg.s:3216   .text.startup.main:0000000000001368 $t

UNDEFINED SYMBOLS
systick_get_reload
systick_get_value
sys_time
mcu_init
electrical_init
stateInit
actuators_init
motor_mixing_init
radio_control_init
baro_init
imu_init
ahrs_aligner_init
ahrs_init
ins_init
gps_init
autopilot_init
adc_generic_init
gps_ubx_ucenter_init
geo_mag_init
air_data_init
settings_init
downlink_init
sys_time_register_timer
imu_periodic
autopilot_periodic
motor_mixing_run
actuators_pwm_commit
air_data_periodic
adc_generic_periodic
autopilot_motors_on
commands
motor_mixing
actuators
actuators_pwm_values
autopilot_in_flight
autopilot_flight_time
datalink_time
gps_ubx_ucenter_periodic
geo_mag_periodic
radio_control_periodic_task
autopilot_set_mode
gps_periodic_check
autopilot_check_in_flight
electrical_periodic
send_autopilot_version
radio_control
autopilot_mode
gps
pprz_tp
uart2
telemetry_mode_Main
telemetry_Main
baro_periodic
i2c_event
uart_event
uart_getch
dl_parse_msg
RadioControlEventImp
imu_aspirin2_event
imu_scale_gyro
ahrs_aligner_run
ahrs_align
ahrs_propagate
ins_propagate
imu_scale_accel
ahrs_update_accel
imu_scale_mag
ahrs_update_mag
baro_event
gps_ubx_parse
gps_ubx_read_message
gps_ubx_ucenter_event
ahrs_update_gps
ins_update_gps
geo_mag_event
dl_buffer
dl_msg_available
autopilot_rc
autopilot_on_rc_frame
imu_aspirin2
imu
ahrs
ahrs_aligner
uart3
gps_ubx

